(lp0
(lp1
F-0.35340822353114987
aF0.5290132616039666
aF-0.8824214851372136
aF-3.7505314529639584
aF3.2725193928175296
aF-0.4180038368347521
aF0.9995317791930085
aF0.7973474204319945
aF1.3694449544674578
aF1.021823072721648
aF1.4259225727326181
aF0.6702982730845948
aF-0.49394459470556357
aF0.8363541005648082
aF1.1364045800140727
aF0.6625707638118002
aF1.0241425136724422
aF0.8584293976373403
aF1.4932721780026592
aF1.3420858657167576
aF0.5541256577883454
aF-0.22439855392838168
aF-0.0691044158865783
aF1.2912867792509588
aF1.855981024552082
aF0.804943585440001
aF1.0387928291343416
aF1.8076766420457913
aF0.28433074212462073
aF1.3022817526311874
aF1.2908954926250444
aF1.149201764716483
aF1.2344568258875415
aF0.4361376049549253
aF0.45035012859312323
aF0.0
aF0.29034040977099174
aF-0.8276040728338313
aF0.0
aF0.0
aF-0.04749632271795372
aF0.01966878885123398
aF0.12830132821176837
aF0.0
aF-0.5474310504325428
aF0.0
aF0.28215423089913455
aF0.3840031878854303
aF0.0
aF0.0
aF-0.042859690039661155
aF-0.21504959574550347
aF-0.007423675414332666
aF-1.1736943658308603
aF0.0
aF0.0
aF0.0
aF-0.1289033781529487
aF0.0
aF1.1341551553727127
aF-1.005167527464541
aF0.0
aF-0.20853848939048952
aF-0.05933231211089646
aF-0.40024835059784397
aF0.0
aF0.0
aF0.7320417529719148
aF-0.9287229839419199
aF0.0
aF0.40352610591652316
aF0.6763128182004512
aF0.0
aF0.0
aF0.6544312246653683
aF0.0
aF-0.3374966791620837
aF0.005024675506003379
aF0.0
aF-0.35157331239864875
aF0.22957933124979715
aF0.0
aF0.0
aF0.0
aF-0.3565745610098251
aF-0.02897329304124143
aF1.6271552648272773
aF-0.9599855024777695
aF0.0
aF0.13648715066864356
aF1.787161378641454
aF-0.5934879969755089
aF0.2688294764053747
aF-0.10836819908220767
aF-0.7397190766895972
aF-0.5112382242697762
aF-0.009267372127005175
aF0.0
aF0.19029465131461643
aF0.561728290987278
aF0.524128468177207
aF-0.1652561966878855
aF0.0
aF0.0
aF-0.1300473602338395
aF0.20974786428460918
aF0.02796292200156309
aF0.10660009437768775
aF-0.20053719703977144
aF0.21675693866004317
aF0.0
aF-0.836033441617249
aF0.0
aF-0.311567613567516
aF-0.542342938613011
aF0.28128266190910295
aF-0.11337887207268468
aF-0.28522925999276727
aF-0.6810841991788219
aF0.7426348230801392
aF0.044261672708623634
aF0.08693858444894205
aF0.32888452388494144
aF0.14247316532083654
aF0.4951347084667069
aF0.1883816491524154
aF0.6129377009780518
aF0.22214603480729012
aF1.4574989951335076
aF0.5791008059897911
aF-0.05007498856699507
aF0.3974941527890101
aF-0.1412420573056429
aF0.20811668586948906
aF0.5610739251227136
aF-0.22636357782843497
aF1.0613298790728534
aF0.08764114704548315
aF0.2764076710781307
aF0.9215532814518977
aF0.9632366790488469
aF-1.1995924054605476
aF0.0
aF0.0
aF0.0
aF0.36137896578137724
aF0.5407940467629664
aF0.0
aF0.0
aF-0.26995713816403594
aF0.0
aF0.0
aF0.05027272050379717
aF0.0
aF-0.025551012354318205
aF0.8110189418829742
aF0.0
aF0.0
aF-0.19163480141808428
aF0.0
aF0.021947116584506036
aF-0.09705104319113818
aF0.0
aF0.0
aF0.0
aF0.06954366318258627
aF0.0
aF1.4059529115764862
aF-0.10635102735837029
aF0.051671449253226115
aF0.0
aF0.01324811473135144
aF-0.2804057390201067
aF0.2132320745880738
aF0.4007471433938837
aF-0.5008697544160319
aF0.8232420198026527
aF0.0
aF0.0
aF0.07858931030527821
aF-0.006542648901843766
aF-0.10723286053921502
aF0.7312970230066176
aF0.0
aF0.0
aF0.3728518579437046
aF0.477160686535525
aF0.5603437623387489
aF0.14505976493856015
aF0.0
aF-1.1569551979865744
aF0.0
aF0.2793189236417861
aF0.0
aF0.9124881234187759
aF-0.18983046032591472
aF-0.3606333382854239
aF0.2893757104260624
aF0.0
aF-1.14575513194271
aF0.0
aF0.0
aF0.0
aF0.46819810950964813
aF0.0
aF-0.029005225883625283
aF-1.2893308373233796
aF0.9878682170508221
aF1.0672429332588438
aF0.039905868414821015
aF0.0
aF0.0
aF0.8242132955109834
aF-0.026987129903748006
aF0.13352013594252957
aF1.7349920498472766
aF0.0
aF0.0
aF0.0
aF-0.006393225653723091
aF-0.0529703785606541
aF-2.1963479232309338
aF0.27251438802571315
aF-0.09627595252566887
aF1.2146288949423247
aF-0.02693010509659366
aF1.0845262371169169
aF-0.1448821135907994
aF0.877364627207426
aF0.10285802362516726
aF-0.10437843253202864
aF0.4610969031963428
aF0.7419045398675355
aF1.171960334067373
aF1.3732656874560298
aF1.1467895774480077
aF1.253335182850255
aF1.5809042968177969
aF0.3882905657788998
aF0.3227132055130697
aF0.06511292601671081
aF0.41611918995921393
aF1.018747536713824
aF-0.27576209741121166
aF0.03413821901223518
aF-0.36259694556112787
aF-0.04853371476829051
aF-0.371017887528426
aF0.9715009945080865
aF-1.4379229308208208
aF0.0
aF0.0
aF0.0
aF0.8503250029982571
aF0.0
aF0.0
aF0.0
aF0.5835406172782798
aF0.0
aF0.0
aF0.0
aF0.0
aF0.0
aF0.2048067470376136
aF0.0
aF0.0
aF0.0
aF0.0
aF0.0
aF0.5075725750064747
aF0.0
aF0.0
aF0.0
aF0.04863235589915798
aF0.0
aF1.2056523061387028
aF-0.8467507190353817
aF0.0
aF0.0
aF0.0
aF0.4602534232525507
aF-0.00103293678173964
aF-0.051474692140687034
aF0.11811239732509166
aF-0.03287314838823603
aF0.0
aF-0.4489523633878396
aF0.3684783469407768
aF0.0
aF-0.2701018342651566
aF-0.5994205793570808
aF0.0
aF-0.11480590919615469
aF0.20292191702311607
aF-0.11290146873320181
aF-0.005606409574469144
aF0.14055975768922874
aF0.0
aF0.07537694244105045
aF0.0
aF-0.7170605559911811
aF0.0
aF0.916501942238263
aF-0.7475427175477701
aF0.7751567478060383
aF-1.0199644368218403
aF-0.1682811346049812
aF0.1071525956676888
aF0.5333427045026877
aF-0.18498831333788796
aF0.15445939578485726
aF0.12558543253089724
aF-0.03139026920744756
aF-0.40366914563091844
aF0.6354003781886954
aF0.6186390685988257
aF-0.018423642476631495
aF-0.6649067229932147
aF0.2600121286234678
aF0.0
aF0.112126452722528
aF-0.7894761176971269
aF-0.1627586062906697
aF-0.417208099835
aF-0.11340841728683419
aF0.031739093855801113
aF0.0
aF-0.44792863119027526
aF-0.10757625138113926
aF0.3905856796279029
aF-0.2610110611215968
aF-0.9991955744953978
aF0.0
aF0.0
aF-0.2779299339902278
aF-0.01417479079749131
aF0.0
aF0.0
aF0.14431859735177732
aF0.0
aF0.055347395295007734
aF0.13275279471847903
aF-0.7604888220259495
aF0.14405856766882613
aF1.0551580695163074
aF-0.2194653826724206
aF0.0
aF-3.3120774517278284
aF0.3256838549317006
aF0.0
aF0.2978999033816354
aF0.0
aF0.0
aF0.0
aF-0.7875613684244344
aF0.0
aF0.7426214690028029
aF-0.4610285883922478
aF0.0
aF0.16314224820938558
aF-1.005380914953718
aF-0.5900026241011453
aF0.22371956719839936
aF-0.2441511448587552
aF-0.25844848839587803
aF-0.0092577516640591
aF0.6288116268982861
aF0.07431940882757905
aF0.37258545369126894
aF-0.04962308311507863
aF0.3095914490514997
aF-0.5573447337102156
aF-0.0006458556354657796
aF-0.0107161802052318
aF1.2378465355524757
aF-0.05667772974732353
aF0.42206584366556954
aF0.5021871615327
aF-0.3721014446169152
aF0.14347994818202742
aF0.0
aF-0.027875277682881814
aF0.13472738276026738
aF0.7128554079330196
aF0.030549666039867134
aF-0.1040041206185563
aF-0.08454727768475957
aF-0.05114727689226281
aF0.19113769420722365
aF-0.04146280401018545
aF0.33309720388969094
aF0.399974055248006
aF0.09577567076747041
aF-0.24557460926783534
aF-0.4126151792819007
aF0.32358329890651566
aF-0.20836011472346452
aF-0.6426442006621563
aF-0.43654090217278674
aF-0.42406874095287234
aF0.0
aF-0.1253504555971674
aF0.9186601103216139
aF-0.4567048588235054
aF-1.728618395979223
aF-0.2567107514660847
aF-0.5652091309362061
aF-0.33986942197307557
aF0.9775939256740215
aF-0.7910560151050096
aF1.02188029808682
aF-0.2656758585650032
aF0.0
aF0.0
aF0.0
aF0.02208015745398389
aF0.0
aF0.0
aF0.6550589482027005
aF0.39078547966783106
aF0.0
aF0.0
aF-0.46829341530472046
aF0.0
aF0.0
aF0.109054276118009
aF-0.09137328445998899
aF0.0
aF-0.3303039363755122
aF-0.3234104988227336
aF-0.16265555958902084
aF0.04264072092179798
aF0.0
aF0.0
aF0.0
aF0.05337922104279424
aF0.0
aF-0.03676029473958232
aF0.0
aF0.0
aF0.0
aF0.0
aF0.0
aF0.0
aF0.0
aF0.0
aF0.0
aF0.0
aF0.0
aF0.0
aF0.0
aF0.0
aF0.0
aF0.0
aF0.0
aF0.0
aF0.0
aF0.0
aF-0.03676029473958232
aF0.0
aF0.0
aF0.0
aF0.0
aF0.0
aF1.1030329218280144
aF-0.5949742581295624
aF0.016010736377257927
aF0.5730916648897473
aF0.6713149163047915
aF0.07396381889032488
aF0.49722574436220107
aF-0.30268963296116225
aF-0.5104874506999069
aF0.6929814336715067
aF-0.6784122793771686
aF0.8223908815242704
aF0.370113241871229
aF-0.1990381244505427
aF0.80948342285617
aF0.2574474163295932
aF0.2838294926122486
aF-0.026358158897547654
aF0.7093145343102111
aF0.47052620333329676
aF0.5580666083445667
aF-0.42267151182028634
aF1.350459663590662
aF0.3970529011482375
aF0.04043801664398557
aF-0.24795327711166879
aF0.04611444660608964
aF1.2894895045458712
aF-0.18990625510297984
aF0.048324111226523477
aF0.675329926237818
aF-0.1210552506521439
aF-0.4187190422577516
aF-0.0029536228347242137
aF0.022766390762230134
aF0.49607719359165364
aF-0.21647433812742534
aF0.0
aF0.8547258203171223
aF0.33491929231487333
aF0.3603587654173147
aF-0.0008337419165077083
aF0.2239130299040411
aF0.24750121349179216
aF-0.10717569627891456
aF0.23324159367969047
aF-0.3516797906144495
aF0.0567869008881025
aF-1.7064842678452254
aF0.0875720333032636
aF0.05358241099019791
aF0.0
aF-1.0943427971237758
aF0.0
aF0.6090629120650547
aF-0.5626707177773674
aF0.37315702160159575
aF1.1928260646811257
aF0.0
aF0.02271902622693008
aF-0.6233894733287637
aF0.08224769951413034
aF0.6250140197502686
aF0.34831393075877587
aF0.0
aF-0.018319701770456148
aF-0.32671130630927747
aF0.0339741164166554
aF-0.5040347908175564
aF0.31217308462686205
aF0.0
aF0.0
aF0.5027681915894253
aF-0.20135812085631927
aF1.1936741858257032
aF-0.11424475765916825
aF0.12258814266153269
aF-0.13792001379431473
aF0.0
aF-0.026459221970684232
aF0.40432582401935585
aF0.9391968115926811
aF0.46879227951536184
aF0.4022112020197979
aF0.0830715328261231
aF-0.16946899637164778
aF-0.177377378827344
aF-0.2431353995465327
aF0.8372803438058575
aF0.0666678541889194
aF0.8236112165632957
aF0.0
aF-0.04677404939106017
aF0.016472974808379157
aF0.16988386793126584
aF-0.4965971998395264
aF0.0
aF0.002885168425317319
aF0.0
aF-0.23045778587019844
aF0.7935597885867702
aF-0.5664444475849714
aF0.0
aF0.027170582975365093
aF0.0
aF-0.4959609202543211
aF0.20210699085693387
aF-0.7356108776756862
aF0.9390136272623438
aF0.022206078168889122
aF0.0
aF0.0
aF0.0
aF-0.9406858740175735
aF0.0
aF0.0
aF0.0
aF0.5132181709221576
aF0.0
aF-0.1474780351107708
aF0.01814164199257923
aF0.0
aF0.0
aF-0.17682409201290328
aF0.0
aF0.0
aF-0.1349080336353335
aF-0.0390462830006895
aF0.0
aF0.05940323214665509
aF-0.3787291936321117
aF0.0
aF0.0
aF0.26359346026947394
aF0.0
aF1.0151975749198034
aF0.628550309369744
aF0.0
aF0.0
aF0.0
aF-0.6645062813780309
aF0.03904076466987515
aF0.0
aF-0.1445909292110302
aF0.673406266888115
aF0.0
aF0.0
aF0.18694117348637868
aF0.0
aF-0.4582236817281115
aF0.39212498069636004
aF0.0
aF0.0
aF-0.012572689155593541
aF0.006140774331285205
aF0.14482344122300364
aF0.041898985771858965
aF0.0
aF0.0
aF0.0
aF0.4795902474225142
aF0.0
aF0.6174092674368642
aF-0.2643871927357718
aF0.0
aF-0.01053448112596592
aF0.0
aF0.5697380840763584
aF0.0654118369435842
aF0.0
aF0.0
aF0.0747430667161199
aF0.0
aF0.0
aF0.0
aF0.0
aF0.0
aF0.0536787481968833
aF-0.002155753427652708
aF0.0
aF0.0
aF0.0
aF-0.02273906389982483
aF-0.04185955289447103
aF0.0
aF0.16817691726162876
aF0.0
aF-0.0518625147636282
aF0.0
aF-0.22543438929850512
aF0.13578967194298786
aF-0.5608598821461724
aF-0.08032025440504692
aF0.11399794378171359
aF-0.07972933634015533
aF-0.0055656647081925225
aF0.0
aF0.0
aF0.20315166594462158
aF-0.07554462011107249
aF0.20645986107730926
aF-1.0055660036434952
aF0.1095948807921326
aF-0.1325938547093192
aF-0.8247224544416826
aF-0.2429694288451068
aF0.0
aF0.2541009480811575
aF-1.3303335665397227
aF-0.38662603772323845
aF0.33231677874259585
aF0.09978953094442224
aF0.08212385849608357
aF0.0
aF0.0
aF0.0
aF1.9363872441634429
aF0.30286780272284497
aF-0.04809621866307819
aF0.0
aF0.0
aF0.7732349984470509
aF0.0
aF0.1444024810820262
aF0.0
aF0.11023706836032522
aF0.0
aF-0.02897329304124143
aF0.05552191919715273
aF-0.11631163466541208
aF0.0
aF0.27774047507859817
aF0.0
aF0.0
aF0.1381996794699601
aF-0.15311967034029098
aF0.0
aF-0.1345300946823724
aF0.0
aF0.0
aF0.0
aF0.02691389441871782
aF0.09603608670972494
aF-0.891870733352851
aF-1.2816302209001638
aF-1.2734666276512185
aF-0.9694461683394663
aF-0.1962890822930525
aF-0.9277064844204312
aF-0.8122242449139684
aF-1.321478591889105
aF-0.36006382117750674
aF-0.21933967423056586
aF-0.08927796926710496
aF-0.8597205439865726
aF-0.9659055451858888
aF-0.7737155603749097
aF-0.4504075413799318
aF-1.4171216575811334
aF-0.205754420659814
aF-0.7199814540441071
aF-1.9768735433112823
aF-1.4228695940299332
aF-0.1248513309576277
aF-0.42911424849737495
aF-1.0558601411000963
aF0.0
aF-0.09301476388439679
aF0.0
aF-2.1164972730454066
aF-0.1665146192905897
aF0.3047217524876493
aF0.12301884488528483
aF-0.10460050613239387
aF0.1366361905727703
aF-0.49358403981022714
aF0.10483044708794105
aF-1.882812406229576
aF0.5818536653975489
aF0.4926137678863204
aF0.634603226132412
aF-0.5225590627013754
aF-0.9807568837742016
aF-1.0489062934783302
aF-0.732468195704287
aF-0.10623072750137398
aF-0.20839758249712778
aF-1.2883431206380938
aF-0.7588100843284441
aF-0.8306045993022086
aF-0.42059708415840213
aF-0.6543143077972498
aF-0.8965970536184881
aF0.09037123789355415
aF0.2929776962749153
aF0.7999247927477422
aF-0.3081123469077993
aF-0.006102273941439973
aF0.566885204792548
aF0.253626187665017
aF0.26261302854049867
aF0.24447564442370148
aF-0.10723724539157756
aF0.29446476012318956
aF0.5422095146661208
aF1.3802124825374922
aF0.21000458314170126
aF1.0552874654543132
aF0.411740451260896
aF0.5505742631207516
aF0.46006422346312414
aF-0.5397011017364228
aF-0.9856076088157532
aF-0.24532554848935054
aF-0.027796449237694816
aF-1.1127182777698008
aF-0.21423940690749052
aF-0.03329634550713988
aF0.36158379550999586
aF0.2417628469022261
aF0.40089562244565463
aF-0.40795301943664464
aF-0.7117158426038352
aF0.6376353863396075
aF-0.42936521506677683
aF-0.02203378266586392
aF0.4156770154631435
aF0.1879974719188634
aF0.04998180616863445
aF1.7214691749990911
aF-0.349104197147345
aF0.5780460230349374
aF0.7212952219756048
aF0.11968943485716482
aF0.07553329667800125
aF0.32104324360134445
aF1.0794665074702487
aF0.6003218642762554
aF0.15808424036890548
aF0.5308240410065596
aF-0.15243367463779334
aF-0.49278228797520723
aF0.6610246572124212
aF0.43781397606475786
aF0.20847497278795651
aF1.0343118847254755
aF0.13381449423788327
aF-0.05332815211771092
aF-0.00690823643935279
aF0.07032266072787863
aF0.701562789795031
aF-0.32911256450268905
aF-0.3403188219898623
aF0.20647201356336906
aF0.5462849123901402
aF0.1748887496316713
aF0.1408599152164578
aF0.7693476789977894
aF0.7234229235553974
aF0.6984990661570625
aF-0.14741948727410156
aF-0.1899852144492138
aF0.920819503041372
aF0.8385307079168103
aF1.069038383473651
aF-0.3381752344393824
aF0.5475613298933479
aF-0.048589911941798014
aF0.3699560022930427
aF0.27451559946190784
aF0.7774638859264756
aF0.08723711394717053
aF0.08812297442183673
aF0.6752703722031472
aF-0.08038586325183353
aF0.5266177899681692
aF0.6389484052658759
aF0.8199549207619719
aF-0.13808065197623395
aF0.7446339329000229
aF1.0984475825686744
aF0.6246673547588493
aF0.2673580424823034
aF0.14514812720829592
aF-0.04461025571429618
aF0.2577196714839403
aF0.14355479724539258
aF0.08991059525056778
aF0.4319522425596578
aF0.5940101510253453
aF1.754466100235764
aF0.5639970560596894
aF0.41861817014905217
aF0.4899493493665063
aF0.17399014645625915
aF0.7114981177234648
aF0.7544035450649619
aF1.0800761431086356
aF-0.2882237488381091
aF0.8013195367489364
aF-0.12060675428290514
aF-0.022854159369671473
aF0.18206793353640685
aF-0.02374764419211306
aF0.5852945425987951
aF-0.9631754788241865
aF-0.142796212669885
aF1.7090987404151425
aF0.4764559946430252
aF-0.7716250122617304
aF0.24919608694848028
aF0.2979958650327227
aF-0.31861507025099506
aF0.02547805243333721
aF0.07343992273862793
aF0.5136904639382895
aF-0.07838546847014777
aF1.064986242476361
aF0.4879261168585875
aF2.2103773966961007
aF0.7113494284870658
aF0.1533151086952073
aF0.4502297996938788
aF0.5348799670967772
aF0.49806892110107637
aF0.359385163234198
aF-0.20368745267150076
aF0.20755963752220924
aF-0.04809253335372321
aF-0.26404475773868097
aF-0.021037750439162832
aF0.5963953635390166
aF-1.558342191909549
aF-0.05503604235919443
aF0.13687286899434736
aF-0.1942730715969336
aF-0.8392720266539717
aF0.48386323556043104
aF0.3067031293935922
aF1.136962088347403
aF0.16336657541301922
aF0.14482582074820383
aF0.8178612458513287
aF0.6635444441231999
aF0.40448537281131275
aF-0.165799181159515
aF1.8835289973488714
aF0.40585978480200907
aF0.0
aF0.7702344473502071
aF-0.15121187503571154
aF0.20787533004528216
aF0.7466107405078312
aF0.235429687486564
aF0.15947215054922434
aF-0.054672523714147006
aF-0.20216312413289417
aF-0.08563044093655034
aF0.19372897057331745
aF-1.4828508881197473
aF-0.005144660218160972
aF0.12356822003754883
aF-0.1609369896971645
aF-0.19666165606093777
aF0.28884154084247204
aF0.012042568718392745
aF0.8801905679071104
aF0.9056939680488377
aF0.0
aF-0.10845164329598268
aF0.6533747506349883
aF0.1955256278012696
aF0.4905390245127481
aF0.8875372776250908
aF0.07707844235540626
aF0.0
aF1.1900099203694094
aF0.3054900615079574
aF0.2811635817792237
aF-0.009473246379284699
aF-0.0006458556354657796
aF0.2424864279636336
aF0.0
aF-0.8823481208623397
aF0.0
aF-0.7781026657483889
aF-0.6197090450010804
aF-0.02174243742961894
aF0.10854565329465878
aF0.6584207612302467
aF-0.8090246281779353
aF0.2893757104260624
aF-0.006000280013547135
aF0.07230051179378398
aF0.16479067901949707
aF0.0
aF-0.0883268414021345
aF-0.035194711176621735
aF0.10512263287244021
aF0.909390722858653
aF0.7399222193093208
aF-0.0392310734740162
aF0.0
aF0.46004695327921075
aF0.12383852148718151
aF0.07937916669186774
aF0.12346798927853626
aF-0.0008848810537337753
aF0.0
aF0.0
aF0.03188436075522586
aF-0.0023100975981872095
aF-0.3686684248164448
aF-0.15014653713091508
aF0.0
aF-0.0049637987793615035
aF-0.002249293115188532
aF0.05370129875646982
aF0.0
aF-0.04613338093248229
aF-0.004513238865985976
aF-0.0036908324300803583
aF0.0
aF0.0
aF-0.0406590861247997
aF0.0
aF0.006862623729194462
aF0.4402587108459149
aF0.0
aF0.0
aF-0.008507274822244955
aF0.22724023161720985
aF0.19380390553237833
aF0.034939852485828544
aF0.0
aF0.04241508468632896
aF0.0
aF-0.0664418712207224
aF0.0
aF0.3086206213064978
aF-0.009383480491607163
aF-0.0023100975981872095
aF0.0
aF-0.0004703622035552899
aF-0.2006765493975024
aF0.0
aF-0.0015831646351139612
aF0.0
aF0.14167413463575412
aF0.0
aF0.0
aF-0.0014175720557928627
aF0.0
aF-0.010169143659100247
aF0.20160718257725893
aF0.0
aF0.0
aF0.07256520348942064
aF0.22667017606458476
aF0.0
aF0.0
aF0.0
aF-0.0005341695835905446
aF0.0
aF-0.013880960478566047
aF0.0
aF0.11934032684533863
aF-0.04471151711354372
aF-0.00041244276509843513
aF0.0
aF0.0
aF-0.00988319072637249
aF0.0
aF-0.00044984304718979836
aF0.0
aF0.0
aF0.0
aF0.0
aF-0.0005195453993920709
aF0.0
aF-0.007548557740956698
aF-0.0060623056745260865
aF0.2048481719601529
aF0.0
aF0.0
aF0.19917268445130373
aF-0.0004915371556237837
aF0.0
aF0.0
aF0.0
aF0.0
aF-0.005398119919719553
aF0.0
aF-0.06605513343416228
aF0.0
aF0.0
aF0.0
aF0.0
aF0.0
aF0.0
aF0.0
aF0.2048481719601529
aF0.0
aF0.0
aF0.0
aF-0.00041244276509843513
aF0.0
aF-0.054752892070465985
aF0.0
aF0.0
aF0.0
aF-0.0005341695835905446
aF-0.0019428990992467268
aF-0.0023100975981872095
aF0.0
aF0.0
aF0.0
aF0.0
aF-0.0005195453993920709
aF0.0
aF-0.0005195453993920709
aF0.0
aF0.0
aF0.0
aF-0.0005341695835905446
aF0.20443572919505035
aF0.0
aF0.0
aF-0.0023100975981872095
aF0.0
aF0.0
aF0.0
aF0.0
aF0.0
aF0.0
aF0.0
aF0.0
aF0.0
aF0.0
aF-0.0006898988910235662
aF0.0
aF0.0
aF0.0
aF0.0
aF0.0
aF0.0
aF0.0
aF0.20443572919505035
aa(lp2
F-0.07925868082846045
aF1.4157342261640238
aF-1.4949929070069643
aF-0.8244657505303599
aF3.1039731960687598
aF0.8620821392840132
aF-0.840932289603547
aF-1.0416072267509184
aF-1.2485164459861264
aF-0.5585822264484772
aF-1.3047754001640166
aF-0.6050564068781399
aF-0.32655937756800385
aF-0.6363630589673142
aF-1.94755699176647
aF-0.6279602952275969
aF-0.8299470517003253
aF-1.1328944545469377
aF-0.6636767059993013
aF-0.7007498426344101
aF-0.5381083822123863
aF-0.6999740932367599
aF0.0771271656139704
aF-0.5402412519762804
aF-1.5775769856528041
aF-1.0654191874178325
aF-0.5432733100638991
aF-1.133338394481299
aF0.04767586156204935
aF-0.8208623972739079
aF-3.5866047121531706
aF-1.0072550614914715
aF-0.020164133742223887
aF0.49205810586807064
aF0.29648476761637715
aF0.0
aF-0.22563117855353748
aF0.6146755710831148
aF0.0
aF0.0
aF0.07036195056584979
aF0.7213820540135188
aF-0.1345388268297184
aF0.0
aF0.37353075996713747
aF0.0
aF-0.27508693037850884
aF-0.34227460512591606
aF0.0
aF0.0
aF0.6997694366580925
aF0.24377780586854608
aF-0.016599419650468766
aF-0.32030503774044167
aF0.0
aF0.0
aF0.0
aF0.2246387950295965
aF0.0
aF1.1014060351204216
aF0.15691992362456916
aF0.0
aF0.06186371014277112
aF0.06410706862922042
aF-0.04286349707089665
aF0.0
aF0.0
aF1.3438971074284363
aF0.6378727537090696
aF0.0
aF0.06120651665348106
aF-0.2332605921291894
aF0.0
aF0.0
aF-0.14866833784707986
aF0.0
aF0.36657904943794184
aF0.17633517584367098
aF0.0
aF0.09543260388979075
aF-0.35609855546411534
aF0.0
aF0.0
aF0.0
aF0.5110701519236339
aF0.034687182971382964
aF0.0670551612213582
aF1.1398747867886616
aF0.0
aF-0.08438911679072975
aF-0.7310960935208137
aF1.021709326866879
aF-0.11212293808840733
aF0.23876813702450664
aF-0.31138090408431796
aF1.5182023409370973
aF-0.007536464548760291
aF0.0
aF-0.30453555637163277
aF-0.32154877101540796
aF-0.5206694205942783
aF0.6812303421664323
aF0.0
aF0.0
aF1.4162537544396423
aF0.052883108795118004
aF-0.007681323711303328
aF0.026142464118188838
aF0.26012470001751015
aF-0.05972321435643413
aF0.0
aF1.0170074787839114
aF0.0
aF-0.7060989832357634
aF-0.088309782691331
aF0.665295066603054
aF-0.30744287282599164
aF0.7114072735887021
aF-0.1643606659362394
aF-0.24278894124732342
aF0.5516128928771495
aF0.12694914976359614
aF0.0927627569905119
aF-0.2498566816641066
aF-0.24505536402586123
aF0.8999688128326252
aF-0.830213078681601
aF0.4754208022420833
aF-0.854935403874631
aF-0.032753072401031834
aF-0.02575231583883714
aF0.44681271734873684
aF-0.3139778753410745
aF2.042531121142219
aF-0.2612638611605034
aF-0.4792139682629555
aF0.25419389975476375
aF-0.028502449637659345
aF-0.6756193579636546
aF-0.7057340030321969
aF0.05644911898505856
aF1.0644168962467941
aF0.0
aF0.0
aF0.0
aF-0.3801212144770268
aF1.0309846697649276
aF0.0
aF0.0
aF0.12055929866931771
aF0.0
aF0.0
aF0.326087813007393
aF0.0
aF0.02751192042036992
aF-0.7081319993136138
aF0.0
aF0.0
aF0.5157302704966296
aF0.0
aF-0.034805333511011546
aF0.012514017957860852
aF0.0
aF0.0
aF0.0
aF0.10080179819270636
aF0.0
aF0.8495275914365967
aF0.5948153022211186
aF-0.03202363575565676
aF0.0
aF0.00389568852453455
aF-0.2269799990551103
aF-0.15465949384491662
aF0.26090421928970714
aF-0.21509800453764846
aF-0.19930717815129
aF0.0
aF0.0
aF0.09865080592382883
aF0.08151241713321461
aF0.4793794630199203
aF-0.34374971541135474
aF0.0
aF0.0
aF0.03238078805686888
aF-0.23257417973707317
aF-0.03956715188448175
aF0.2985946173802364
aF0.0
aF1.4350757613652656
aF0.0
aF-0.08886834229407072
aF0.0
aF-0.15142138208683165
aF-0.12859121711406787
aF-0.16589288659918575
aF-0.00300152903338957
aF0.0
aF-0.5655860557301259
aF0.0
aF0.0
aF0.0
aF0.30033660105503107
aF0.0
aF0.04175780638772431
aF1.3628762368131282
aF-0.6174418920883165
aF-0.69816987538387
aF-0.7128766203900585
aF0.0
aF0.0
aF-0.22005185332154514
aF0.10709094900893255
aF-0.590347036805202
aF-1.2373970662039748
aF0.0
aF0.0
aF0.0
aF0.5960189401232945
aF0.26289421011816844
aF-1.9804198827830661
aF-1.1920837811070044
aF0.5897747405589782
aF-0.6054486102377269
aF0.43967699992002046
aF-0.8773792363727134
aF0.6766672582476779
aF-0.7407284510443354
aF-0.1000344364223564
aF-0.08097325798952323
aF-0.45574441950229383
aF-0.2967456915317529
aF0.3365006913852014
aF-0.29253303954249904
aF0.27485588571755654
aF-1.8343033287308501
aF-0.8576667696246504
aF-0.2756814298222178
aF0.2665271414483054
aF-0.4887265444334547
aF-0.2175785999940468
aF-0.7907088015041261
aF0.7030886213376919
aF-0.014083568372000197
aF0.22371630204650064
aF0.052573914619629104
aF0.9332378064252862
aF0.7183888796445714
aF0.5347446022670721
aF0.0
aF0.0
aF0.0
aF0.44021980634655
aF0.0
aF0.0
aF0.0
aF-0.39172535297060707
aF0.0
aF0.0
aF0.0
aF0.0
aF0.0
aF0.6183131953804787
aF0.0
aF0.0
aF0.0
aF0.0
aF0.0
aF-0.35239745944668244
aF0.0
aF0.0
aF0.0
aF-0.03742201909383895
aF0.0
aF0.7673217864506426
aF1.6082146814030516
aF0.0
aF0.0
aF0.0
aF0.10341302023218338
aF-0.001241717667969528
aF-0.0023563801921761157
aF-0.11472780435072695
aF1.0141348220870698
aF0.0
aF0.5397599276138808
aF-0.27036417388321926
aF0.0
aF-0.5267945272182502
aF0.9491446428900393
aF0.0
aF0.14485213226080298
aF-0.005148319012940739
aF0.13238202088163606
aF0.008657930023672964
aF-0.1102732636163493
aF0.0
aF-0.014020371724482348
aF0.0
aF0.7076876162636441
aF0.0
aF0.4777323949509232
aF0.04419036765619648
aF-0.16939627705782886
aF1.0714485955684596
aF0.2592137736445735
aF0.4009942687415394
aF-0.33510409343359643
aF0.19951945804948917
aF0.051203885192597984
aF0.7163449716094559
aF0.0325195526788353
aF0.3062819667590719
aF0.6391103985106995
aF0.08007408073683306
aF0.036077478425893025
aF-0.6035373929032194
aF-0.006637461389081497
aF0.0
aF-0.15029708741885944
aF0.42571850950000295
aF-0.837306719226189
aF0.354969175592464
aF0.3469131437057339
aF-0.013367566048183049
aF0.0
aF-0.1819880628668569
aF0.108736654160611
aF-0.13450166106020606
aF0.9785661466260549
aF1.29778104359967
aF0.0
aF0.0
aF0.29428854760713463
aF-0.008018500802680248
aF0.0
aF0.0
aF0.205335165827429
aF0.0
aF-0.03009527343957649
aF0.006752620732132208
aF0.08532417167080927
aF-0.11089078148496015
aF0.25877197491065845
aF0.2865153423531792
aF0.0
aF-2.1473864187693135
aF-0.25954637922798046
aF0.0
aF0.32963586763072744
aF0.0
aF0.0
aF0.0
aF1.1648041971756449
aF0.0
aF0.19933747744085603
aF0.8648044486178982
aF0.0
aF0.19252859172914608
aF0.43780084533098934
aF0.5777232611997716
aF-0.13107245511158602
aF0.5290508923450077
aF0.3560987571224598
aF0.5847906567305279
aF-0.5479670392583837
aF-0.7528569234949208
aF-0.8173598553615162
aF0.09260198575057663
aF1.7845911187112304
aF-0.27601506918073443
aF-0.0013099803702293247
aF-0.009760125650770179
aF-1.0898072797846248
aF0.4641768640267792
aF0.7654626863841992
aF-0.3723650187232085
aF0.12883022820265153
aF-0.060691989161896234
aF0.0
aF-0.05215658297395284
aF0.018697020673616498
aF-0.4464468052065399
aF-0.2257172595993885
aF-0.06000567532433616
aF0.0016820020322360174
aF-0.5864101453427703
aF0.011300004573108997
aF-0.1309366375687205
aF-0.23664556927182176
aF-0.8056674768035539
aF-0.25542046872891916
aF0.2542916482543789
aF0.24118478743834232
aF1.0359358203556408
aF0.04296288192362914
aF0.013718277819270838
aF-1.3124822784317371
aF1.0780381542682274
aF0.0
aF0.811934580643486
aF0.48120844604666985
aF0.6958140423749268
aF-0.6482942873234225
aF0.30503610454123686
aF0.4963678970566728
aF0.4923846438709895
aF-0.8297922113222765
aF0.8616834903385179
aF-0.06007922619564301
aF0.647306680839451
aF0.0
aF0.0
aF0.0
aF0.11987283475785941
aF0.0
aF0.0
aF1.7166156492987787
aF-0.03559078758732788
aF0.0
aF0.0
aF-0.7225054743145268
aF0.0
aF0.0
aF-0.6709630929967523
aF0.5472424980783179
aF0.0
aF0.0545438660322839
aF0.3606221141186701
aF-0.7402747301415903
aF-0.18131538525281077
aF0.0
aF0.0
aF0.0
aF0.07801023006847095
aF0.0
aF-0.22497466805378946
aF0.0
aF0.0
aF0.0
aF0.0
aF0.0
aF0.0
aF0.0
aF0.0
aF0.0
aF0.0
aF0.0
aF0.0
aF0.0
aF0.0
aF0.0
aF0.0
aF0.0
aF0.0
aF0.0
aF0.0
aF-0.22497466805378946
aF0.0
aF0.0
aF0.0
aF0.0
aF0.0
aF-0.12714639141312178
aF0.8432277354050159
aF0.3529557530167285
aF-0.3086369792353912
aF0.6931325580501516
aF0.12693836794473143
aF-0.39564658839409383
aF0.9430536517400077
aF0.857942817659243
aF1.5956391361098856
aF0.7914800495596478
aF-0.7781981953050847
aF0.5834536439298319
aF0.7455877835295743
aF-0.10384897226534098
aF0.8016477886769792
aF-0.14272851961928473
aF0.03632312134770288
aF-0.44672348153609454
aF0.012169662934328104
aF0.738998005596752
aF1.1016039348618016
aF-0.9975596986426701
aF-0.040796073445656465
aF-0.02679307205910264
aF-0.23450283560593133
aF0.009602722176822372
aF0.2175935541498415
aF0.4473681015352118
aF-0.03246424137086083
aF-0.28868942669261205
aF0.13784272145247067
aF-0.2559068352975545
aF-0.006327488887474648
aF-0.015532803951640878
aF1.7571049476471392
aF0.6059826467827524
aF0.0
aF-0.680449627473008
aF-0.15207929280248805
aF0.21232882713422807
aF-0.0013050231787373222
aF-0.692728128571588
aF-0.4659493839576585
aF-0.18706747798107556
aF-0.2311571935080959
aF0.7047583908220995
aF1.5554837902690755
aF1.4867937830297802
aF-0.0625288681734784
aF-0.07649391999574065
aF0.0
aF1.65298052658303
aF0.0
aF-0.23143063842662578
aF-0.2657389925891036
aF-0.026979579720915952
aF-0.586014098245061
aF0.0
aF0.6135754301004283
aF-0.38780106997265096
aF0.010948234479944976
aF1.1796471028610902
aF0.2733013001442671
aF0.0
aF0.020403450545142855
aF-0.407980948739414
aF-0.13723728129688656
aF0.6845955579625307
aF-0.6326695166152252
aF0.0
aF0.0
aF0.4897818262800856
aF0.1680724732707558
aF1.3718445323058372
aF-0.08796785725827856
aF-0.04520458462590969
aF-0.13082042404027378
aF0.0
aF0.020042272673434954
aF0.09801547036002714
aF-1.412355807554705
aF-1.069207979421759
aF-0.3276225894519069
aF-0.5072764392826763
aF0.652715807862961
aF0.26743844873753186
aF0.3860271601642586
aF-0.6353880857363452
aF-0.028239036184832676
aF-0.6170571218987122
aF0.0
aF0.07704153386700288
aF0.3421926143678326
aF-0.11145495245541004
aF0.7804312707629993
aF0.0
aF0.10332516646595749
aF0.0
aF0.028503782596191535
aF-0.9711036016385346
aF-0.1989262944127597
aF0.0
aF-0.020717880090309868
aF0.0
aF0.5044191947091561
aF-0.1911326710728035
aF0.795889376311253
aF0.07443015562263507
aF0.23592938953973738
aF0.0
aF0.0
aF0.0
aF-0.5730840623965622
aF0.0
aF0.0
aF0.0
aF0.33342399125845873
aF0.0
aF0.1691099570311504
aF0.002215119009403561
aF0.0
aF0.0
aF0.44916883040737793
aF0.0
aF0.0
aF0.24638955397932588
aF0.04224147380761128
aF0.0
aF-0.03201811302810995
aF0.5349558747495806
aF0.0
aF0.0
aF0.19435843025720026
aF0.0
aF-0.6790664632243613
aF-0.3174505090908014
aF0.0
aF0.0
aF0.0
aF-0.3192025310889871
aF-0.005996101101020625
aF0.0
aF-0.5869481035026487
aF0.6362301444323771
aF0.0
aF0.0
aF-0.1584121427247712
aF0.0
aF0.7689188949099163
aF-0.9484901348256093
aF0.0
aF0.0
aF0.2500958298657241
aF0.08070253430974854
aF-0.016997042666511867
aF-0.004807385207124326
aF0.0
aF0.0
aF0.0
aF-0.06801064071453444
aF0.0
aF0.03807512769928384
aF0.28867423950592624
aF0.0
aF-0.019249744824369506
aF0.0
aF-0.49622456245032065
aF-0.050551196125572524
aF0.0
aF0.0
aF0.07214595605967845
aF0.0
aF0.0
aF0.0
aF0.0
aF0.0
aF-0.04797832451147641
aF-0.0018964990709772742
aF0.0
aF0.0
aF0.0
aF-0.31414997618271684
aF-0.0194780060603632
aF0.0
aF-0.019704813222901803
aF0.0
aF0.08589052640863891
aF0.0
aF-0.8585512935049175
aF0.17909801014169424
aF0.6545960809521016
aF0.14554632811374893
aF0.02127231814389914
aF0.3024112917426186
aF-0.006324551558735819
aF0.0
aF0.0
aF-0.24680862177981214
aF0.0781879949828447
aF-0.18424493673353828
aF-0.5245927224696315
aF0.09306268216050155
aF1.7086571148590348
aF-0.08905578921708128
aF0.24998744742290233
aF0.0
aF-0.12607604388957322
aF1.7943265047372796
aF0.8625200388765747
aF-0.3173615536498768
aF0.059287582469607955
aF-0.03793935767134677
aF0.0
aF0.0
aF0.0
aF0.3672456370122065
aF0.19209326433765841
aF0.06551984799849646
aF0.0
aF0.0
aF-0.5417172602370744
aF0.0
aF-0.016280212638314317
aF0.0
aF0.2773883006642222
aF0.0
aF0.034687182971382964
aF-0.02162011132975739
aF0.1323254730030541
aF0.0
aF-0.21335689550913656
aF0.0
aF0.0
aF-0.1315583841189502
aF0.20545763662287525
aF0.0
aF0.13715182439982473
aF0.0
aF0.0
aF0.0
aF0.14599970338211765
aF0.09667472406507738
aF-1.5026449264499628
aF-0.9376189789728638
aF-1.1085615014584629
aF-0.9601336603212297
aF-0.4035520118878548
aF-0.6421346770941374
aF-0.5108871139281306
aF-0.5179571365444516
aF-0.6343468605688797
aF-0.07822209330558075
aF-0.039770953929688144
aF-0.6527791841616366
aF-1.9867536461321098
aF-0.4845163117438563
aF-0.34551042142574784
aF-0.7980388962884296
aF-0.02989948500370891
aF-0.5792823438224318
aF-1.124193979830118
aF-1.0035459051275126
aF-0.10973771523113304
aF-0.4934985945930664
aF-0.42579644044072146
aF0.0
aF-0.15984971027414377
aF0.0
aF-3.1556416458377496
aF-0.58734751790995
aF0.026222445545977996
aF-0.3342813008857388
aF0.8741913091667723
aF-0.7550339516501199
aF-0.0979322990935717
aF0.09528416215491203
aF-1.3280263723409944
aF1.0867329035796762
aF-0.46735283148164236
aF-0.36177174188099803
aF0.2068150485543913
aF0.21510831730865762
aF-0.08129734408773871
aF-0.6850576616266015
aF0.21193572095081464
aF-0.10797976813839918
aF-0.29310669469866807
aF0.7144825862212946
aF-0.4832518735376678
aF0.5097167936102338
aF0.7985370013077857
aF1.2566674959403068
aF-0.15243865391902217
aF-0.4405519989373195
aF-0.5345029259830029
aF-0.8715414329344952
aF-0.33789323322396764
aF1.0676126795652994
aF-0.1997603845601441
aF0.2147249629414047
aF-0.6552538872805796
aF0.4562507892468729
aF0.9939756026090886
aF0.7577281634730861
aF1.424006991500315
aF-0.3855584878830493
aF-1.1301698258635473
aF0.825492659132991
aF-0.04651257538353855
aF0.24215752590998343
aF-0.06329182443424823
aF0.45130556823888385
aF0.20353463384250867
aF0.7156740280307402
aF0.39380077742038877
aF0.18928292352160808
aF-0.32002896089988425
aF0.1878549630195686
aF0.46046813349076493
aF-0.2331887918284116
aF0.35477600043953866
aF1.1437504639808314
aF0.40231508610116984
aF-0.270113260487756
aF0.6665938560409106
aF0.1487773560637252
aF0.30881498124827134
aF-0.3238574208674453
aF-0.15440743168924734
aF0.7542862057791205
aF1.5579497209223918
aF1.2241226899345752
aF0.010275606979856603
aF0.1386395023865504
aF0.8285879454904486
aF0.9675797695565835
aF0.674992565517186
aF-0.5967949946227157
aF0.18868013314815962
aF0.18988062298625338
aF0.7838972044734878
aF1.0454253780030562
aF0.9091467871637317
aF0.13949531451558791
aF-0.25759135887564516
aF0.385260819745097
aF0.38819684657032605
aF0.6577463890332748
aF0.525012072746454
aF0.830598717505313
aF0.24366689539413577
aF0.5682535272883882
aF0.12963246954218297
aF0.14256375108828703
aF-0.2341392870643092
aF-0.09691821571639798
aF-0.5733127428955194
aF1.6481632496049778
aF1.4715147110263538
aF0.15172707242009356
aF-0.22914948315643965
aF1.0476694939872775
aF0.12854115803190266
aF1.0999651498460041
aF-1.302714969185914
aF0.01694941868476174
aF0.11594305572789194
aF1.0913924682366143
aF0.5924311157631056
aF0.9822190580004493
aF0.019530150471493778
aF-0.03359010190628069
aF0.11083485998440777
aF0.16408621246156255
aF0.6561990304613864
aF-0.1697590469525702
aF0.8540565311034989
aF0.8579626817035386
aF-0.6936843703781983
aF-0.6763194300333816
aF-0.6504919650974772
aF-0.26638527463443923
aF-0.061726174422963014
aF0.12851530131904174
aF1.0518615314111621
aF0.7370852994975333
aF-0.050958602484964
aF-0.24147987513224184
aF0.34854817826677525
aF-1.2550989682086213
aF0.4043574463942005
aF0.03726266466816898
aF-0.2561340070802834
aF-0.13515003218482818
aF-0.49145508327040904
aF0.510899196596932
aF0.3559657090310182
aF-0.3659682609703885
aF-1.3040848843228614
aF-0.06234480777736672
aF-0.02086021893708596
aF-0.1255001209538671
aF0.05412115507565018
aF0.8744569893105402
aF1.496593835911248
aF0.14721601912020404
aF-1.2333597819753455
aF0.3216156251153854
aF0.4805211446812655
aF-0.13354850145890948
aF-1.0672729058307258
aF1.3404273738919834
aF0.42782285810784676
aF-0.02530947081095669
aF-0.13294596048927393
aF-0.1632289905679343
aF-0.8678312171946995
aF0.19240149755112848
aF-1.4801485486103936
aF-0.4352541398345051
aF-0.13960839286590648
aF0.24037232240396397
aF0.4177405936774292
aF0.7473261269007969
aF-1.4184301841205518
aF0.24377079339643454
aF-0.08727334429866615
aF0.14266121958272682
aF0.8250827583632723
aF0.10215383339145288
aF0.3314418643327176
aF1.7166594103997264
aF0.11426104552947831
aF-0.16836165634171443
aF0.6313381950988087
aF0.32169054975683625
aF-0.38435591447264633
aF0.4698624305005746
aF-0.5702563447920916
aF0.4270695930224653
aF-0.09994776829448056
aF-0.3917155097850505
aF-1.0153236133062877
aF-0.3675006546504383
aF0.7601259085990273
aF-1.5763505310731845
aF-0.11063105434051156
aF0.0
aF-0.47530790246642446
aF-1.25359845703589
aF0.723319660693313
aF-0.5388769054929785
aF-0.016892404940101573
aF-0.0722112578586602
aF0.055905607725874676
aF-0.41197567586499234
aF0.10307177810451933
aF-0.061783559252156464
aF1.9246908953495345
aF-0.006376770281870118
aF-0.2023408520427838
aF-0.4872493560331541
aF-0.2302009657541178
aF-0.004329815865772348
aF-0.025481110725498635
aF-0.07570806275443621
aF0.20633758426213827
aF0.0
aF0.044070265071901996
aF-0.9496161052522644
aF-0.0949274986023105
aF0.28980466122797577
aF-0.6978996336534972
aF-0.0035140764572447318
aF0.0
aF-0.7618368393340926
aF-0.425394870772369
aF0.3094591459184635
aF-0.00645882624262302
aF-0.0013099803702293247
aF-0.22045727801921025
aF0.0
aF-0.48177400652668534
aF0.0
aF0.7146950474347497
aF0.7880809442755252
aF-0.10549317571330064
aF0.06637656662680513
aF-0.3176298404563301
aF1.2092914740773588
aF-0.00300152903338957
aF-0.0037655529039311506
aF0.009238900044795125
aF-0.09170033399176553
aF0.0
aF-0.0016373055877777303
aF-0.06491985307600441
aF-0.08189324118311335
aF-0.4014956587268141
aF-0.5353070889358715
aF-0.0012262720896833582
aF0.0
aF-0.16883109557173806
aF-0.05724207781857867
aF0.06060049634773553
aF-0.006640889116790991
aF-0.0029859584214890172
aF0.0
aF0.0
aF-0.5171400370628199
aF0.28328226271376966
aF0.8465840692456427
aF0.47486953467033416
aF0.0
aF-0.011638637756640645
aF-0.003796113839768471
aF0.0734745042562064
aF0.0
aF-0.014183294860604342
aF0.036120828610865914
aF-0.020594368961729382
aF0.0
aF0.0
aF-0.09556904592912961
aF0.0
aF0.41367746812232953
aF-0.19753816010265368
aF0.0
aF0.0
aF-0.15108213933352924
aF-0.07181862141079166
aF-0.021650641817211855
aF-0.005232250357280106
aF0.0
aF-0.005178228535134033
aF0.0
aF0.04971190113705846
aF0.0
aF0.37469116064193975
aF0.022793804261614963
aF0.28328226271376966
aF0.0
aF-0.0012146235619866967
aF0.2915038917650451
aF0.0
aF-0.0021335792192821554
aF0.0
aF-0.17039054187756217
aF0.0
aF0.0
aF-0.0045024091429154405
aF0.0
aF-0.010033782042375622
aF-0.021713825565491725
aF0.0
aF0.0
aF0.03260675215362071
aF-0.14936491576083327
aF0.0
aF0.0
aF0.0
aF-0.0013282868323829153
aF0.0
aF0.0033669208764849014
aF0.0
aF0.1255602494600912
aF-0.18138426385316664
aF-0.0014723311168275514
aF0.0
aF0.0
aF0.3111250764739969
aF0.0
aF-0.0012549647807029714
aF0.0
aF0.0
aF0.0
aF0.0
aF-0.001622787536150107
aF0.0
aF-0.005371804116999581
aF-0.007104993718695676
aF-0.002374421384465642
aF0.0
aF0.0
aF-0.01075462054090471
aF-0.0013230509112467374
aF0.0
aF0.0
aF0.0
aF0.0
aF0.0331348701893763
aF0.0
aF0.1557706890915149
aF0.0
aF0.0
aF0.0
aF0.0
aF0.0
aF0.0
aF0.0
aF-0.002374421384465642
aF0.0
aF0.0
aF0.0
aF-0.0014723311168275514
aF0.0
aF-0.15104014212861377
aF0.0
aF0.0
aF0.0
aF-0.0013282868323829153
aF-0.006380696303083539
aF0.28328226271376966
aF0.0
aF0.0
aF0.0
aF0.0
aF-0.001622787536150107
aF0.0
aF-0.001622787536150107
aF0.0
aF0.0
aF0.0
aF-0.0013282868323829153
aF-0.0038467525012932167
aF0.0
aF0.0
aF0.28328226271376966
aF0.0
aF0.0
aF0.0
aF0.0
aF0.0
aF0.0
aF0.0
aF0.0
aF0.0
aF0.0
aF-0.0014543504041462268
aF0.0
aF0.0
aF0.0
aF0.0
aF0.0
aF0.0
aF0.0
aF-0.0038467525012932167
aa(lp3
F0.43266690438640143
aF-1.9447474877667719
aF2.377414392148985
aF4.5749972034899455
aF-6.37649258888803
aF-0.4440783024494828
aF-0.15859948958944797
aF0.2442598063189008
aF-0.12092850848132071
aF-0.4632408462731535
aF-0.12114717256860692
aF-0.06524186620644874
aF0.8205039722735619
aF-0.19999104159749218
aF0.8111524117523993
aF-0.03461046858421109
aF-0.1941954619721126
aF0.27446505690963774
aF-0.8295954720033444
aF-0.6413360230823067
aF-0.01601727557596238
aF0.9243726471651272
aF-0.008022749727392474
aF-0.7510455272747225
aF-0.2784040388992696
aF0.2604756019777907
aF-0.4955195190704385
aF-0.6743382475645032
aF-0.3320066036866681
aF-0.48141935535726094
aF2.295709219528157
aF-0.1419467032249903
aF-1.2142926921453494
aF-0.9281957108229688
aF-0.7468348962094988
aF0.0
aF-0.0647092312174582
aF0.21292850175071126
aF0.0
aF0.0
aF-0.022865627847895847
aF-0.7410508428647686
aF0.006237498617945922
aF0.0
aF0.17390029046540156
aF0.0
aF-0.007067300520625973
aF-0.04172858275951113
aF0.0
aF0.0
aF-0.6569097466184413
aF-0.028728210123039145
aF0.02402309506480121
aF1.493999403571288
aF0.0
aF0.0
aF0.0
aF-0.09573541687665167
aF0.0
aF-2.235561190493117
aF0.8482476038399962
aF0.0
aF0.1466747792477196
aF-0.004774756518324909
aF0.4431118476687369
aF0.0
aF0.0
aF-2.0759388604003157
aF0.29085023023290174
aF0.0
aF-0.4647326225699951
aF-0.4430522260712745
aF0.0
aF0.0
aF-0.5057628868182849
aF0.0
aF-0.029082370275860473
aF-0.18135985134967364
aF0.0
aF0.2561407085088563
aF0.12651922421431178
aF0.0
aF0.0
aF0.0
aF-0.1544955909138091
aF-0.005713889930141162
aF-1.694210426048247
aF-0.1798892843108725
aF0.0
aF-0.05209803387791338
aF-1.056065285120627
aF-0.42822132989136175
aF-0.1567065383169705
aF-0.13039993794230068
aF1.0510999807739312
aF-1.006964116667299
aF0.016803836675765533
aF0.0
aF0.11424090505701225
aF-0.2401795199718733
aF-0.0034590475829298765
aF-0.5159741454785629
aF0.0
aF0.0
aF-1.286206394205841
aF-0.26263097307972993
aF-0.02028159829026024
aF-0.13274255849588248
aF-0.05958750297773584
aF-0.1570337243036097
aF0.0
aF-0.18097403716667393
aF0.0
aF1.017666596803361
aF0.6306527213043219
aF-0.9465777285121559
aF0.42082174489867374
aF-0.4261780135959277
aF0.8454448651150543
aF-0.4998458818328173
aF-0.5958745655857798
aF-0.21388773421253907
aF-0.4216472808754628
aF0.10738351634327481
aF-0.25007934444085006
aF-1.0883504619850015
aF0.21727537770355015
aF-0.6975668370493682
aF-0.6025635912588432
aF-0.5463477335887718
aF0.0758273044058302
aF-0.8443068701377139
aF0.4552199326467228
aF-2.250647807011773
aF-0.2998100639622132
aF0.7055775460913849
aF-1.3155237788276137
aF-0.05913869740781992
aF0.3992116868855247
aF-0.21581927841970755
aF-1.0196857980338943
aF0.1351755092137757
aF0.0
aF0.0
aF0.0
aF0.018742248695647352
aF-1.57177871652789
aF0.0
aF0.0
aF0.14939783949472796
aF0.0
aF0.0
aF-0.37636053351119525
aF0.0
aF-0.001960908066051161
aF-0.10288694256935565
aF0.0
aF0.0
aF-0.3240954690785527
aF0.0
aF0.01285821692650517
aF0.08453702523327705
aF0.0
aF0.0
aF0.0
aF-0.1703454613752936
aF0.0
aF-2.255480503013082
aF-0.4884642748627734
aF-0.019647813497569493
aF0.0
aF-0.017143803255886023
aF0.5073857380751984
aF-0.058572580743157174
aF-0.6616513626835903
aF0.7159677589536767
aF-0.6239348416513611
aF0.0
aF0.0
aF-0.1772401162291054
aF-0.07496976823137348
aF-0.37214660248070075
aF-0.3875473075952669
aF0.0
aF0.0
aF-0.40523264600057207
aF-0.24458650679844884
aF-0.5207766104542795
aF-0.44365438231879084
aF0.0
aF-0.27812056337867963
aF0.0
aF-0.1904505813477135
aF0.0
aF-0.7610667413319163
aF0.3184216774399319
aF0.5265262248846075
aF-0.28637418139267073
aF0.0
aF1.7113411876728215
aF0.0
aF0.0
aF0.0
aF-0.7685347105646805
aF0.0
aF-0.012752580504098755
aF-0.07354539948974083
aF-0.3704263249625126
aF-0.3690730578749683
aF0.67297075197525
aF0.0
aF0.0
aF-0.6041614421894324
aF-0.0801038191051818
aF0.456826900862669
aF-0.49759498364327404
aF0.0
aF0.0
aF0.0
aF-0.5896257144695561
aF-0.20992383155751684
aF4.176767806013738
aF0.9195693930812658
aF-0.49349878803330827
aF-0.6091802847046166
aF-0.4127468948234184
aF-0.20714700074416562
aF-0.5317851446568831
aF-0.13663617616312085
aF-0.0028235872028079347
aF0.1853516905215512
aF-0.005352483694044035
aF-0.4451588483357751
aF-1.5084610254525885
aF-1.0807326479135546
aF-1.4216454631654905
aF0.580968145880606
aF-0.7232375271931334
aF-0.11260913595668219
aF-0.5892403469613747
aF0.42361361841673495
aF-0.19854058996517526
aF-0.22803873520971413
aF-0.4273265239264801
aF-0.020054650640235334
aF0.13888064351462426
aF-0.004040199851339629
aF-0.5622199188968532
aF-1.6898898741526533
aF0.903178328553782
aF0.0
aF0.0
aF0.0
aF-1.29054480934482
aF0.0
aF0.0
aF0.0
aF-0.19181526430766224
aF0.0
aF0.0
aF0.0
aF0.0
aF0.0
aF-0.8231199424181025
aF0.0
aF0.0
aF0.0
aF0.0
aF0.0
aF-0.15517511555980204
aF0.0
aF0.0
aF0.0
aF-0.011210336805318638
aF0.0
aF-1.9729740925893895
aF-0.7614639623676698
aF0.0
aF0.0
aF0.0
aF-0.5636664434847306
aF0.0022746544497092265
aF0.05383107233286308
aF-0.00338459297436442
aF-0.9812616736988359
aF0.0
aF-0.0908075642260362
aF-0.09811417305756058
aF0.0
aF0.7968963614834135
aF-0.3497240635329557
aF0.0
aF-0.030046223064649807
aF-0.19777359801017547
aF-0.019480552148434156
aF-0.0030515204492041073
aF-0.03028649407287851
aF0.0
aF-0.06135657071657019
aF0.0
aF0.009372939727517486
aF0.0
aF-1.3942343371891819
aF0.7033523498915739
aF-0.6057604707482047
aF-0.051484158746619456
aF-0.09093263903959777
aF-0.5081468644092114
aF-0.19823861106908858
aF-0.01453114471160008
aF-0.20566328097745432
aF-0.8419304041403928
aF-0.0011292834713880593
aF0.09738717887184972
aF-1.274510776699365
aF-0.6987131493356278
aF-0.01765383594926125
aF1.2684441158964483
aF-0.25337466723438484
aF0.0
aF0.03817063469633255
aF0.3637576081971216
aF1.0000653255168597
aF0.062238924242532974
aF-0.23350472641889894
aF-0.018371527807615202
aF0.0
aF0.6299166940571129
aF-0.0011604027794707942
aF-0.25608401856773694
aF-0.7175550855044828
aF-0.2985854691042688
aF0.0
aF0.0
aF-0.016358613616901354
aF0.02219329160017237
aF0.0
aF0.0
aF-0.34965376317920155
aF0.0
aF-0.025252121855432446
aF-0.13950541545061043
aF0.6751646503551436
aF-0.03316778618386575
aF-1.3139300444269555
aF-0.0670499596807632
aF0.0
aF5.459463870497146
aF-0.0661374757037198
aF0.0
aF-0.6275357710123519
aF0.0
aF0.0
aF0.0
aF-0.3772428287512139
aF0.0
aF-0.9419589464436905
aF-0.4037758602256295
aF0.0
aF-0.3556708399385446
aF0.5675800696228018
aF0.01227936290138757
aF-0.09264711208681392
aF-0.2848997474862535
aF-0.09765026872658021
aF-0.5755329050664686
aF-0.0808445876398935
aF0.6785375146673345
aF0.44477440167024707
aF-0.0429789026354975
aF-2.0941825677626946
aF0.8333598028909686
aF0.0019558360056949895
aF0.020476305856001915
aF-0.14803925576785792
aF-0.4074991342794608
aF-1.1875285300497638
aF-0.12982214280949408
aF0.24327121641426297
aF-0.0827879590201294
aF0.0
aF0.08003186065683635
aF-0.15342440343388317
aF-0.26640860272648825
aF0.19516759355952182
aF0.1640097959428931
aF0.08286527565252114
aF0.6375574222350364
aF-0.20243769878033524
aF0.17239944157889303
aF-0.09645163461787261
aF0.40569342155556604
aF0.1596447979614466
aF-0.00871703898654638
aF0.1714303918435627
aF-1.359519119262153
aF0.16539723279983734
aF0.6289259228428793
aF1.7490231806044936
aF-0.653969413315356
aF0.0
aF-0.6865841250463293
aF-1.3998685563682753
aF-0.23910918355143332
aF2.3769126833026846
aF-0.04832535307515506
aF0.06884123387952225
aF-0.15251522189791059
aF-0.1478017143517419
aF-0.07062747523350449
aF-0.9618010718911609
aF-0.38163082227445105
aF0.0
aF0.0
aF0.0
aF-0.14195299221184585
aF0.0
aF0.0
aF-2.3716745975014835
aF-0.3551946920804942
aF0.0
aF0.0
aF1.1907988896192616
aF0.0
aF0.0
aF0.5619088168787488
aF-0.45586921361832683
aF0.0
aF0.27576007034321887
aF-0.0372116152959347
aF0.9029302897306334
aF0.1386746643310126
aF0.0
aF0.0
aF0.0
aF-0.1313894511112644
aF0.0
aF0.26173496279337144
aF0.0
aF0.0
aF0.0
aF0.0
aF0.0
aF0.0
aF0.0
aF0.0
aF0.0
aF0.0
aF0.0
aF0.0
aF0.0
aF0.0
aF0.0
aF0.0
aF0.0
aF0.0
aF0.0
aF0.0
aF0.26173496279337144
aF0.0
aF0.0
aF0.0
aF0.0
aF0.0
aF-0.9758865304148466
aF-0.24825347727545644
aF-0.36896648939398685
aF-0.26445468565435554
aF-1.3644474743549044
aF-0.20090218683507108
aF-0.10157915596811413
aF-0.640364018778847
aF-0.34745536695934576
aF-2.288620569781362
aF-0.11306777018247724
aF-0.0441926862191742
aF-0.9535668858010425
aF-0.5465496590790166
aF-0.7056344505908865
aF-1.059095205006564
aF-0.14110097299296734
aF-0.009964962450155344
aF-0.2625910527741016
aF-0.48269586626762295
aF-1.2970646139413258
aF-0.6789324230415297
aF-0.35289996494800374
aF-0.3562568277025761
aF-0.013644944584883176
aF0.4824561127175948
aF-0.055717168782910644
aF-1.5070830586956325
aF-0.2574618464322317
aF-0.01585986985566266
aF-0.3866404995451983
aF-0.016787470800327362
aF0.6746258775552956
aF0.00928111172219899
aF-0.007233586810589564
aF-2.253182141238807
aF-0.3895083086553207
aF0.0
aF-0.17427619284413176
aF-0.18283999951238383
aF-0.5726875925515579
aF0.0021387650952451316
aF0.4688150986675558
aF0.2184481704658696
aF0.29424317425998964
aF-0.002084400171594903
aF-0.35307860020767845
aF-1.6122706911571978
aF0.21969048481547426
aF-0.025043165129785196
aF0.022911509005545443
aF0.0
aF-0.5586377294592909
aF0.0
aF-0.3776322736382933
aF0.8284097103664548
aF-0.3461774418806777
aF-0.6068119664360624
aF0.0
aF-0.6362944563273626
aF1.0111905433014134
aF-0.09319593399407762
aF-1.8046611226113183
aF-0.6216152309030224
aF0.0
aF-0.0020837487746871563
aF0.7346922550486966
aF0.10326316488023014
aF-0.18056076714497887
aF0.32049643198832894
aF0.0
aF0.0
aF-0.9925500178695134
aF0.03328564758556498
aF-2.5655187181314547
aF0.20221261491745202
aF-0.07738355803562248
aF0.2687404378345893
aF0.0
aF0.006416949297247395
aF-0.5023412943793929
aF0.4731589959620367
aF0.6004156999064058
aF-0.07458861256789101
aF0.4242049064565533
aF-0.48324681149131443
aF-0.09006106991019092
aF-0.1428917606177259
aF-0.20189225806948807
aF-0.03842881800408763
aF-0.2065540946645952
aF0.0
aF-0.030267484475943008
aF-0.35866558917620955
aF-0.05842891547585666
aF-0.28383407092346813
aF0.0
aF-0.10621033489127309
aF0.0
aF0.20195400327401308
aF0.17754381305171843
aF0.7653707419977276
aF0.0
aF-0.00645270288505577
aF0.0
aF-0.008458274454841262
aF-0.010974319784132235
aF-0.06027849863556898
aF-1.0134437828849734
aF-0.25813546770861345
aF0.0
aF0.0
aF0.0
aF1.5137699364141093
aF0.0
aF0.0
aF0.0
aF-0.8466421621806048
aF0.0
aF-0.021631921920380756
aF-0.020356761001983067
aF0.0
aF0.0
aF-0.2723447383944731
aF0.0
aF0.0
aF-0.11148152034399679
aF-0.003195190806921564
aF0.0
aF-0.02738511911854426
aF-0.15622668111746377
aF0.0
aF0.0
aF-0.4579518905266742
aF0.0
aF-0.33613111169548543
aF-0.3110998002789566
aF0.0
aF0.0
aF0.0
aF0.9837088124670024
aF-0.03304466356885473
aF0.0
aF0.7315390327136704
aF-1.309636411320493
aF0.0
aF0.0
aF-0.028529030761606306
aF0.0
aF-0.310695213181792
aF0.5563651541292469
aF0.0
aF0.0
aF-0.23752314071013467
aF-0.0868433086410347
aF-0.12782639855649355
aF-0.037091600564734206
aF0.0
aF0.0
aF0.0
aF-0.411579606707982
aF0.0
aF-0.6554843951361392
aF-0.024287046770151123
aF0.0
aF0.029784225950335703
aF0.0
aF-0.07351352162604616
aF-0.014860640818011363
aF0.0
aF0.0
aF-0.14688902277580215
aF0.0
aF0.0
aF0.0
aF0.0
aF0.0
aF-0.00570042368540734
aF0.0040522524986297504
aF0.0
aF0.0
aF0.0
aF0.33688904008254517
aF0.06133755895483492
aF0.0
aF-0.1484721040387275
aF0.0
aF-0.03402801164501134
aF0.0
aF1.0839856828034313
aF-0.31488768208468504
aF-0.09373619880592848
aF-0.06522607370870391
aF-0.13527026192561212
aF-0.22268195540245994
aF0.011890216266928379
aF0.0
aF0.0
aF0.04365695583519095
aF-0.0026433748717722685
aF-0.022214924343772757
aF1.5301587261130989
aF-0.2026575629526332
aF-1.576063260149757
aF0.9137782436587629
aF-0.007018018577797898
aF0.0
aF-0.12802490419158422
aF-0.46399293819754295
aF-0.4758940011533297
aF-0.014955225092724596
aF-0.15907711341403288
aF-0.04418450082473698
aF0.0
aF0.0
aF0.0
aF-2.30363288117559
aF-0.4949610670604912
aF-0.01742362933541944
aF0.0
aF0.0
aF-0.231517738210004
aF0.0
aF-0.12812226844371025
aF0.0
aF-0.38762536902455186
aF0.0
aF-0.005713889930141162
aF-0.03390180786739538
aF-0.01601383833764251
aF0.0
aF-0.0643835795694653
aF0.0
aF0.0
aF-0.006641295351008964
aF-0.05233796628258559
aF0.0
aF-0.002621729717452734
aF0.0
aF0.0
aF0.0
aF-0.17291359780083523
aF-0.19271081077480287
aF2.3945156598029236
aF2.219249199873049
aF2.38202812910965
aF1.9295798286606793
aF0.5998410941809171
aF1.569841161514574
aF1.3231113588420962
aF1.8394357284335692
aF0.9944106817464022
aF0.29756176753615
aF0.129048923196793
aF1.5124997281482166
aF2.9526591913181335
aF1.2582318721187584
aF0.7959179628056682
aF2.2151605538696475
aF0.23565390566352268
aF1.2992637978665385
aF3.101067523141356
aF2.4264154991574154
aF0.23458904618876344
aF0.9226128430904263
aF1.481656581540806
aF0.0
aF0.25286447415853386
aF0.0
aF5.272138918882928
aF0.7538621372005837
aF-0.3309441980336341
aF0.21126245600045754
aF-0.7695908030343865
aF0.6183977610773509
aF0.5915163389037909
aF-0.20011460924285512
aF3.210838778570525
aF-1.6685865689772472
aF-0.02526093640467764
aF-0.2728314842514071
aF0.31574401414697134
aF0.7656485664655642
aF1.1302036375661013
aF1.4175258573308853
aF-0.10570499344943969
aF0.31637735063552685
aF1.5814498153367884
aF0.04432749810714672
aF1.3138564728398874
aF-0.08911970945182114
aF-0.14422269351053288
aF-0.36007044232180935
aF0.06206741602546653
aF0.14757430266239405
aF-0.2654218667647242
aF1.1796537798423525
aF0.34399550716542326
aF-1.634497884357845
aF-0.05386580310485731
aF-0.4773379914819126
aF0.4107782428568728
aF-0.34901354385530803
aF-1.288440362732294
aF-1.299937678139208
aF-2.804219474037825
aF0.17555390474134516
aF0.07488236040921895
aF-1.2372331103939105
aF-0.5040616877372124
aF-0.7022217493731332
aF0.6029929261706708
aF0.5343020405768681
aF0.04179091464684528
aF-0.6878775787931324
aF0.7189175003493775
aF0.024956483385877675
aF0.35332530640703896
aF-0.5494387585295633
aF-0.7022309803929819
aF-0.1677068306172445
aF0.05317701899711081
aF-0.43203462137700877
aF-1.0399504724407964
aF0.6994784755545528
aF-0.6445600733750244
aF-0.5644543715268593
aF-0.49681245316715705
aF0.273875614698789
aF-1.56706174330985
aF-0.40518200863177256
aF-2.1359957439572947
aF-1.9454179119101498
aF-0.12996504183702118
aF-0.21417279906454936
aF-1.1496311890917974
aF-2.047046277026805
aF-1.2753144297934278
aF0.43871075425382117
aF-0.7195041741547312
aF-0.0374469483484621
aF-0.29111491649828936
aF-1.7064500352155274
aF-1.3469607632284952
aF-0.34797028730355
aF-0.7767205258498235
aF-0.5190753139829757
aF-0.3348686944526135
aF-0.6508381525939148
aF-0.5953347334743302
aF-1.5321615073004435
aF0.08544566910852662
aF-0.22793470529852514
aF-0.33610448310555247
aF-0.6888486634784156
aF0.05925053743263214
aF-0.04394169950005992
aF-0.19603493610226555
aF-2.371586173160348
aF-2.17001377718338
aF-0.004307585145992081
aF0.41913469760565
aF-1.9684889970286203
aF-0.9670718659486927
aF-2.169003533319599
aF1.6408902036252693
aF-0.5645107485781149
aF-0.06735314378609453
aF-1.4613484705296444
aF-0.8669467152250072
aF-1.759682943926981
aF-0.10676726441865547
aF-0.05453287251555684
aF-0.7861052321875618
aF-0.08370034920973206
aF-1.1828168204295466
aF-0.46918935831329844
aF-1.6740114518650338
aF-0.7198820297273295
aF-0.05094956252182874
aF-0.4221281525352994
aF0.02582461033862118
aF-0.0009727678478711112
aF-0.08342195278533207
aF-0.08390504560474608
aF-1.3095812028950895
aF-0.8806400967429286
aF-0.03895199276560571
aF-0.19047236742741488
aF-0.9425583292921037
aF-0.4993671320271372
aF-0.9683545024538548
aF-0.45588083481723113
aF-0.23381534228622536
aF-0.038840114271433517
aF-0.22004303445305637
aF-1.2653027416618896
aF-1.4360418521396123
aF0.654192009808504
aF0.5027653475739251
aF0.1829515620602719
aF0.04371437830675653
aF-0.056567812582533544
aF-0.030373510883537458
aF-1.4597515319093826
aF-0.5334183570870421
aF-0.004419806450318895
aF-0.4757389584397892
aF-0.7980716197584024
aF0.29110386758045503
aF-0.11564758548957049
aF0.7692770407979773
aF-1.021812303640975
aF-0.45330091054118865
aF-0.04813045192767071
aF-0.380744503449013
aF0.24161445903809112
aF-0.19715502528167064
aF-0.6803276144097232
aF-0.7302288480856488
aF-0.27609528865254307
aF-0.01370671582930048
aF-0.6906021220978434
aF-0.9526205607742035
aF-1.2453950480018416
aF1.0590450208863371
aF-0.04008334072493006
aF-0.12028629322354163
aF-0.09456868622900422
aF-0.5610380006245907
aF-0.08111608295228877
aF-0.9278372278717308
aF-0.15831721849017633
aF-0.05922500317028715
aF0.03148878734736538
aF-0.4370651235018902
aF0.5175814768971275
aF-0.09950732108778229
aF-0.776565559894174
aF-0.5667057435553104
aF-0.5904361684354891
aF-0.04487805245372202
aF-0.4261457360662568
aF0.3517791691830939
aF-0.03698471816086588
aF-0.5943267274395321
aF-0.3071784662756532
aF-0.29522873046149334
aF0.0
aF-0.2949265448837972
aF1.4048103320715848
aF-0.9311949907385914
aF-0.20773383501484513
aF-0.21853728254645896
aF-0.08726089269056707
aF-0.0012330840117272504
aF0.6141387999979045
aF-0.017441337167968522
aF-0.13194541132114093
aF-0.4418400072297795
aF0.011521430500031278
aF0.07877263200523434
aF0.6481863457303244
aF0.42686262181506834
aF-0.2845117249766967
aF0.013438542007106638
aF-0.8044825051526626
aF-1.1120315523109847
aF0.0
aF0.06438137822408106
aF0.296241354617281
aF-0.1005981291989571
aF-0.7803436857407319
aF-0.1896376439715919
aF-0.07356436589816137
aF0.0
aF-0.42817308103531265
aF0.11990480926440708
aF-0.5906227276976799
aF0.01593207262190783
aF0.0019558360056949895
aF-0.022029149944423013
aF0.0
aF1.3641221273890225
aF0.0
aF0.06340761831364433
aF-0.16837189927442558
aF0.1272356131429179
aF-0.1749222199214628
aF-0.3407909207739185
aF-0.400266845899469
aF-0.28637418139267073
aF0.009765832917478243
aF-0.08153941183858011
aF-0.07309034502773291
aF0.0
aF0.0899641469899122
aF0.10011456425262442
aF-0.02322939168932695
aF-0.5078950641318211
aF-0.20461513037343634
aF0.04045734556369957
aF0.0
aF-0.29121585770747116
aF-0.0665964436686023
aF-0.1399796630396037
aF-0.1168271001617435
aF0.0038708394752227154
aF0.0
aF0.0
aF0.4852556763075939
aF-0.2809721651155808
aF-0.4779156444291905
aF-0.3247229975394164
aF0.0
aF0.01660243653600214
aF0.006045406954957508
aF-0.12717580301267453
aF0.0
aF0.060316675793087
aF-0.03160758974487899
aF0.02428520139180901
aF0.0
aF0.0
aF0.1362281320539309
aF0.0
aF-0.42054009185152713
aF-0.24272055074326987
aF0.0
aF0.0
aF0.15958941415577302
aF-0.15542161020641312
aF-0.17215326371516063
aF-0.02970760212854779
aF0.0
aF-0.037236856151193806
aF0.0
aF0.01672997008366508
aF0.0
aF-0.6833117819484376
aF-0.013410323770007887
aF-0.2809721651155808
aF0.0
aF0.0016849857655419013
aF-0.09082734236754203
aF0.0
aF0.0037167438543962085
aF0.0
aF0.02871640724180894
aF0.0
aF0.0
aF0.0059199811987079055
aF0.0
aF0.020202925701474903
aF-0.17989335701176903
aF0.0
aF0.0
aF-0.10517195564304171
aF-0.07730526030374602
aF0.0
aF0.0
aF0.0
aF0.0018624564159734165
aF0.0
aF0.010514039602081016
aF0.0
aF-0.2449005763054293
aF0.2260957809667114
aF0.0018847738819259266
aF0.0
aF0.0
aF-0.3012418857476342
aF0.0
aF0.00170480782789285
aF0.0
aF0.0
aF0.0
aF0.0
aF0.002142332935542038
aF0.0
aF0.012920361857956215
aF0.013167299393221777
aF-0.20247375057568984
aF0.0
aF0.0
aF-0.18841806391039684
aF0.0018145880668705547
aF0.0
aF0.0
aF0.0
aF0.0
aF-0.027736750269657256
aF0.0
aF-0.08971555565735226
aF0.0
aF0.0
aF0.0
aF0.0
aF0.0
aF0.0
aF0.0
aF-0.20247375057568984
aF0.0
aF0.0
aF0.0
aF0.0018847738819259266
aF0.0
aF0.20579303419907843
aF0.0
aF0.0
aF0.0
aF0.0018624564159734165
aF0.008323595402330235
aF-0.2809721651155808
aF0.0
aF0.0
aF0.0
aF0.0
aF0.002142332935542038
aF0.0
aF0.002142332935542038
aF0.0
aF0.0
aF0.0
aF0.0018624564159734165
aF-0.2005889766937601
aF0.0
aF0.0
aF-0.2809721651155808
aF0.0
aF0.0
aF0.0
aF0.0
aF0.0
aF0.0
aF0.0
aF0.0
aF0.0
aF0.0
aF0.0021442492951697146
aF0.0
aF0.0
aF0.0
aF0.0
aF0.0
aF0.0
aF0.0
aF-0.2005889766937601
aa.