(lp0
(lp1
F-0.26200043314625665
aF0.6688044260641052
aF-0.9308048592057544
aF-1.2454954891194148
aF3.0317226475500876
aF0.16118096566423173
aF0.3369256863384484
aF0.05370319740685358
aF-0.05860755320902396
aF0.11178754571190332
aF0.1674121612675734
aF0.10426353871898186
aF-0.8310774404018347
aF-0.7706047811889901
aF0.020073523016233184
aF0.3051861434062952
aF0.14397584316870146
aF-0.20860755660346053
aF0.1996324544931188
aF0.22205855745974232
aF0.19404435231887993
aF-0.5051330254619876
aF-0.11028341596998845
aF0.19511111987405072
aF0.49894498027515743
aF-0.2206239972507231
aF-0.186017238811516
aF0.9823622023430376
aF0.022392129066806595
aF0.6931599005865625
aF-0.14649869580925678
aF0.371839435514805
aF0.7080762695073813
aF0.8920860794032383
aF0.5340870062555263
aF0.0
aF0.19264925764925034
aF-0.6635094047213116
aF0.0
aF0.0
aF-0.05558476004691944
aF0.16974913421274282
aF0.1569449025783337
aF0.0
aF-0.6233770675718299
aF0.0
aF0.18154719407098865
aF0.22454560591128542
aF0.0
aF0.0
aF-0.062390961464905026
aF-0.17837764283943858
aF-0.007627508975255137
aF-0.6247491639367073
aF0.0
aF0.0
aF0.0
aF-0.04030890209464312
aF0.0
aF0.6313632405090166
aF-0.511505435564305
aF0.0
aF-0.08899001762991333
aF-0.13908324637433486
aF-0.39745817784487686
aF0.0
aF0.0
aF0.9253958791445357
aF-0.8530334931696192
aF0.0
aF0.5704402678259543
aF0.4193105097396412
aF0.0
aF0.0
aF0.41457389192011684
aF0.0
aF-0.1729116125771236
aF-0.022394482330887644
aF0.0
aF-0.12405649841494454
aF0.2009857553447356
aF0.0
aF0.0
aF0.0
aF-0.6204140396492077
aF-0.0045594123436956315
aF0.9111992478691541
aF-0.3109196458899168
aF0.0
aF0.17381521458545143
aF1.362076880389757
aF-0.21484772589743512
aF0.24872322991193455
aF-0.04689259565586085
aF-0.5440159114057297
aF-0.17566493309709466
aF-0.006322442765584918
aF0.0
aF0.26869758567317364
aF0.463969893706719
aF0.4318719937971647
aF-0.023144491778271013
aF0.0
aF0.0
aF0.17805140630674096
aF0.061690695262034224
aF0.023072389548598936
aF0.3787440515044883
aF-0.19812742050751755
aF0.20052400781347793
aF0.0
aF-0.36271688206023484
aF0.0
aF0.10073010485244255
aF-0.8162119852590322
aF0.1612375004894454
aF-0.0589534586034721
aF-0.6390224405887727
aF-0.9582710283126139
aF0.4944847043429162
aF-0.3733673934433113
aF0.09879169753067268
aF-0.023920731602199423
aF0.06354408925310796
aF0.14377240044583045
aF-0.4151595084329712
aF0.287157517458872
aF-0.314521825966555
aF0.4647091149447165
aF0.09765683132889162
aF-0.049907606766513304
aF0.11364023364025644
aF-0.5355552599980463
aF-0.22316974793605196
aF0.25696310481179757
aF-0.34996009362806246
aF0.6007706257796706
aF0.20405461430184083
aF-0.06095606711411493
aF0.6718328594062714
aF0.4309519675049816
aF-1.0069983788775574
aF0.0
aF0.0
aF0.0
aF0.314773223322072
aF0.4827375352211507
aF0.0
aF0.0
aF0.10194885838514105
aF0.0
aF0.0
aF-0.010711458532084283
aF0.0
aF-0.002713521932915006
aF0.7487280847934534
aF0.0
aF0.0
aF-0.22190908958483246
aF0.0
aF0.01962175211492597
aF-0.07318409437345949
aF0.0
aF0.0
aF0.0
aF0.039341285768900766
aF0.0
aF1.1132135801386143
aF0.019754375467202948
aF0.04515578011199698
aF0.0
aF0.026544322724928317
aF-0.17497044816380922
aF0.18190529153568763
aF0.44152117603386637
aF-0.22913485106956502
aF0.753840717980077
aF0.0
aF0.0
aF-0.016540619232955873
aF0.02181387349294398
aF-0.17530591540077067
aF0.4782598752779544
aF0.0
aF0.0
aF0.07092261905405137
aF0.5599651908958009
aF0.5721790676292243
aF0.23425987465992337
aF0.0
aF-0.8934184662475891
aF0.0
aF0.13280217578315132
aF0.0
aF0.6650239894691714
aF-0.22160337717705347
aF-0.20944395217949527
aF0.22346931403641365
aF0.0
aF-0.7885434918399523
aF0.0
aF0.0
aF0.0
aF0.24514386017195147
aF0.0
aF-0.004755302809624005
aF-0.9001396063734041
aF0.8257482785242776
aF0.8536339284371364
aF-0.07238288257763335
aF0.0
aF0.0
aF0.7559063814669262
aF-0.007401246129338501
aF0.2893378869731126
aF1.3593840800547972
aF0.0
aF0.0
aF0.0
aF-0.024633192275534354
aF-0.06681122375922424
aF-2.207100382961645
aF0.06945075216569697
aF-0.25094098486255123
aF0.494788178608146
aF-0.34785442623231694
aF0.4303373245486352
aF-0.19630683354462727
aF0.6412195719628301
aF0.06663360339729543
aF-0.08566729090226523
aF0.21013364153568492
aF0.4174619458199658
aF0.663202596345374
aF0.6459057008206359
aF0.5866197896460381
aF0.23040385354191759
aF0.8236211768173065
aF0.2535099340394922
aF-0.18925002874567018
aF-0.3862887226029632
aF0.01156660828564494
aF0.5944465825395675
aF-0.6322690290411344
aF0.025032702745689986
aF-0.3723943891200185
aF-0.09519540487008327
aF-0.31408493910341756
aF0.7200349200837602
aF-0.9715469185395014
aF0.0
aF0.0
aF0.0
aF0.8798315797892832
aF0.0
aF0.0
aF0.0
aF0.4024129996885001
aF0.0
aF0.0
aF0.0
aF0.0
aF0.0
aF0.03417027472139501
aF0.0
aF0.0
aF0.0
aF0.0
aF0.0
aF0.33253177562681663
aF0.0
aF0.0
aF0.0
aF0.0750885423085886
aF0.0
aF0.6247967801717028
aF-0.529917217807753
aF0.0
aF0.0
aF0.0
aF1.018742159140099
aF-0.0008891072323322892
aF-0.00852539069474115
aF0.06769563197092553
aF0.17599724663456065
aF0.0
aF-0.36041949746306184
aF0.5136435498668585
aF0.0
aF-0.13684209018187965
aF-0.9988042951866539
aF0.0
aF-0.0728256677831749
aF0.1745164181137476
aF-0.0004305471726532345
aF-0.0010658632698101413
aF0.08436753096726998
aF0.0
aF0.05840190353135905
aF0.0
aF-0.09770055967263372
aF0.0
aF0.6530129828442812
aF-0.27798809826581905
aF0.9431776228147303
aF-0.612682069182528
aF0.2377920724255058
aF0.23549580031027512
aF0.5734543737181834
aF-0.03935504159002608
aF0.16825663816669986
aF0.2174788699469902
aF-0.04040914136391891
aF-0.18791094376920234
aF0.44939373990910025
aF0.8988657880133293
aF0.01803335484917201
aF-0.6942099819750411
aF0.5253071744987319
aF0.0
aF0.04583955632060677
aF-0.28399820824891947
aF-0.05128255810696574
aF-0.2701728808893849
aF0.2506273118196966
aF0.050290176619025996
aF0.0
aF-0.513560008306521
aF-0.07268436285405347
aF-0.02666787653046411
aF0.11758322065998225
aF-0.40726683293745625
aF0.0
aF0.0
aF0.026863248096727597
aF-0.029789304839171377
aF0.0
aF0.0
aF0.25753719331203867
aF0.0
aF0.033445689194734785
aF0.14541500416245198
aF-0.3311410804967153
aF0.12538902442548827
aF1.036163755658909
aF-0.026111053135324823
aF0.0
aF-2.0937272257855435
aF0.23562498396812223
aF0.0
aF0.29614938084814496
aF0.0
aF0.0
aF0.0
aF-0.48583469385032996
aF0.0
aF0.5382674560590801
aF-0.2816633120986153
aF0.0
aF0.47707702977254385
aF-0.48590204225799405
aF-0.25073436079537254
aF0.2073429306769423
aF0.2603101067964023
aF-0.10264579780955817
aF-0.1695180433549499
aF0.6966130626979299
aF0.2768593628424662
aF0.31913561014753555
aF-0.022841244015294474
aF0.35594077488917397
aF-0.687185334971371
aF-0.0007456603879816184
aF-0.03209786015814096
aF0.9299126221464579
aF0.22304208971112124
aF1.0241614017960257
aF0.29356982923750163
aF-0.20081213682164692
aF0.12595816725362502
aF0.0
aF0.1384712105130125
aF0.1320699278510179
aF0.5017712756043374
aF0.049007489637244384
aF0.021628174358730004
aF-0.08497740264277263
aF0.26063368428465156
aF0.3612588870241851
aF0.0031902753114187977
aF0.2646611773296576
aF0.3326601035740078
aF0.15608617752648346
aF-0.26437423797307075
aF-0.3579702079763046
aF0.4753666072902804
aF-0.033563034877758864
aF-0.23776346890231215
aF-0.5125413765744827
aF-0.14286202493179095
aF0.0
aF0.26463255127776414
aF0.8962105600841666
aF0.08102464799505309
aF-1.224569713642101
aF0.07661287605014185
aF-0.30907071947144815
aF-0.07327252006965601
aF0.7399129580756788
aF-0.46040317783237283
aF0.6820734404851985
aF0.1159598041021621
aF0.0
aF0.0
aF0.0
aF0.10047491385315106
aF0.0
aF0.0
aF0.5972473565290697
aF0.48540496530062954
aF0.0
aF0.0
aF-0.251770098998751
aF0.0
aF0.0
aF-0.18800997067752
aF-0.040566868207706996
aF0.0
aF-0.3529866061519419
aF-0.18068131348748265
aF-0.1902960860891811
aF-0.005739714051970263
aF0.0
aF0.0
aF0.0
aF0.046022718117999385
aF0.0
aF-0.06448847273877992
aF0.0
aF0.0
aF0.0
aF0.0
aF0.0
aF0.0
aF0.0
aF0.0
aF0.0
aF0.0
aF0.0
aF0.0
aF0.0
aF0.0
aF0.0
aF0.0
aF0.0
aF0.0
aF0.0
aF0.0
aF-0.06448847273877992
aF0.0
aF0.0
aF0.0
aF0.0
aF0.0
aF1.238157725625345
aF-0.33404778035862415
aF-0.001530813858221609
aF0.6172749089154601
aF0.5247024649232414
aF-0.17855962054148505
aF0.3212342294617121
aF-0.5144643239603417
aF-0.26685143577226894
aF0.32206440400456454
aF-0.47222239558795726
aF0.7344222784138792
aF0.17576266895637518
aF-0.11568934068200293
aF1.093915945901692
aF0.0503046267645523
aF0.2730278628863426
aF-0.004313587615498539
aF0.576423138200607
aF0.38906223839655124
aF0.75459827897177
aF-0.3140063557592572
aF1.2662580905458074
aF0.23707465069236042
aF0.030676375390209013
aF-0.3368608517442813
aF0.11116564374535017
aF0.8516444916283649
aF0.3238188904895771
aF0.1472574815383663
aF0.9573960005037802
aF-0.16086713625927515
aF0.035522123714612636
aF-0.0032268560283204187
aF0.020119982522937827
aF0.6655814672091533
aF0.1488781761864149
aF0.0
aF0.7998811761264081
aF0.5289092480609258
aF0.4649077779246687
aF-0.0006749965747561771
aF0.3309616640134916
aF0.37804117793590836
aF-0.10235140778426166
aF0.05413443987617267
aF-0.13545081281397056
aF0.4191573414833209
aF-1.3316357668946899
aF0.0744231890423328
aF0.050895026848894964
aF0.0
aF-0.5746492245558164
aF0.0
aF0.3728731179755283
aF-0.1303000821371756
aF0.29302069011789217
aF0.763973479405207
aF0.0
aF0.20941183130170718
aF-0.46315735417575427
aF0.07994626928548684
aF0.6365423050819821
aF0.4018082610609515
aF0.0
aF-0.0020337556270082443
aF0.04063724611251585
aF0.08931962892877286
aF-0.35279411085843504
aF0.5714969700386141
aF0.0
aF0.0
aF0.5989627008146273
aF-0.10240179447427183
aF0.9462316762506237
aF0.019652839837391908
aF0.11834361795903045
aF-0.08418980112127226
aF0.0
aF0.12072595125185188
aF0.29431082867842945
aF0.6447030128893614
aF0.4164225916848471
aF0.3930136227623976
aF0.04905985333716473
aF-0.3113616081139017
aF-0.3009977924437787
aF-0.11826277133949822
aF0.949314185522856
aF0.03799974364799925
aF0.6677257183540317
aF0.0
aF0.02085133528981322
aF-0.05675672506944233
aF-0.18386009677410314
aF-0.2673988166171938
aF0.0
aF0.04211747294616696
aF0.0
aF-0.16224913768529448
aF0.5477839955417192
aF-0.5828364324682934
aF0.0
aF0.02080399315434098
aF0.0
aF-0.46271163729186104
aF0.13889516226627574
aF-0.5553612593753935
aF0.7703165133698204
aF0.46366180325512424
aF0.0
aF0.0
aF0.0
aF-0.8628167619582106
aF0.0
aF0.0
aF0.0
aF0.49522407787786066
aF0.0
aF-0.1500447045286481
aF0.03757133629835243
aF0.0
aF0.0
aF-0.13464093328552698
aF0.0
aF0.0
aF-0.08726972421019877
aF-0.006521740080935063
aF0.0
aF0.02013332170026681
aF-0.2642985367561368
aF0.0
aF0.0
aF0.1559896193417172
aF0.0
aF0.8891149063825782
aF0.8845427591044192
aF0.0
aF0.0
aF0.0
aF-0.6223918885621582
aF0.031948683432287746
aF0.0
aF-0.1003220170645126
aF0.7483183593516612
aF0.0
aF0.0
aF0.11025909359228273
aF0.0
aF-0.3646737430817013
aF0.22628002342897532
aF0.0
aF0.0
aF0.016211698093262446
aF0.058581374366912894
aF0.08882238572138403
aF0.03381478869181573
aF0.0
aF0.0
aF0.0
aF0.35779464188961857
aF0.0
aF0.39042123567917597
aF-0.03119442306053413
aF0.0
aF-0.008119915167618317
aF0.0
aF0.49133716559152923
aF0.06025429466350568
aF0.0
aF0.0
aF0.028102745851191473
aF0.0
aF0.0
aF0.0
aF0.0
aF0.0
aF0.027945396520915326
aF-0.0010194733496965858
aF0.0
aF0.0
aF0.0
aF-0.011036983659945737
aF-0.05026987278558691
aF0.0
aF0.13411910097059496
aF0.0
aF-0.045863813546061595
aF0.0
aF-0.32138818412935805
aF0.3458104602650741
aF-0.21546451855878154
aF-0.12991991175215278
aF0.29037620303285094
aF0.07394880991609458
aF-0.006137987350362989
aF0.0
aF0.0
aF0.11264021797775066
aF-0.11631908189647075
aF0.17740606042647183
aF-0.34697394738403153
aF0.15238964486337944
aF-0.027847369707052844
aF-0.6548335971224337
aF-0.16641374481850651
aF0.0
aF0.3249328547437828
aF-0.930113248337575
aF-0.19152945110280803
aF0.2950184680270325
aF0.09739136853025436
aF0.04190498612529915
aF0.0
aF0.0
aF0.0
aF1.6162838935012296
aF0.5033140743406823
aF-0.02711954846930478
aF0.0
aF0.0
aF0.5762651245829529
aF0.0
aF0.10786566124417485
aF0.0
aF0.10038043087491072
aF0.0
aF-0.0045594123436956315
aF-0.021083672327509455
aF-0.12256848916095575
aF0.0
aF0.1723046285635105
aF0.0
aF0.0
aF0.19216917040979123
aF-0.02706568176094257
aF0.0
aF-0.03328213994528994
aF0.0
aF0.0
aF0.0
aF0.11733188911858572
aF0.18464407078814749
aF-0.8194677096433388
aF-0.8163475084853196
aF-0.9818173981905466
aF-0.6968957676080424
aF-0.19961748193229648
aF-0.5311727320930864
aF-0.7000064619281579
aF-0.8829338595208289
aF-0.31946486643662053
aF-0.11362234934191902
aF-0.06993304332065961
aF-0.48927561658276214
aF-0.7499759047263682
aF-0.5223949413194201
aF-0.37441389833467364
aF-1.043219033373726
aF-0.11547783391583409
aF-0.6090513328298266
aF-1.4029855771929582
aF-0.8956530167015491
aF-0.1179536175792871
aF-0.3355222545505746
aF-0.6624686659757848
aF0.0
aF-0.09277209966106553
aF0.0
aF-1.923689673587338
aF-0.1318505403995015
aF0.6496146357007184
aF0.25460452210551987
aF0.20659021872069663
aF-0.07494812522432112
aF-0.403267757398766
aF0.3222713388396139
aF-1.7004158778773253
aF0.6198635115972844
aF0.3802552068899895
aF0.8138247519276792
aF0.015207558264528319
aF-0.3489722575740985
aF-0.46853859835772776
aF-0.9161708971416415
aF-0.061121950328092194
aF-0.16907577209873917
aF-0.7679351303466168
aF-0.12217961385042303
aF-0.5126413787547817
aF-0.16346632951923226
aF-0.33238982079893825
aF-0.5495396854903889
aF0.06061701406656086
aF0.12058139297685817
aF0.7351416612670358
aF-0.5459909877108023
aF0.10818243586355326
aF0.7114182557525723
aF0.39073997675911754
aF0.47699703403105115
aF0.10666851586803652
aF-0.038159570002729626
aF0.2754862153096197
aF0.5939848146712972
aF1.2123594070785093
aF0.04085960894255893
aF0.9210235249424432
aF0.5490723811846829
aF0.7793781815946368
aF0.4857269926227722
aF-0.5094067112800825
aF-1.066466898930738
aF-0.26274720010606
aF-0.06864904851164343
aF-0.6260087959391418
aF-0.024623070007831722
aF-0.15736278741225732
aF0.31567709338221817
aF0.22045012148848747
aF0.16864740899558386
aF-0.33134936771347084
aF-0.6537393454953955
aF0.4290914924043035
aF-0.11435984937573268
aF0.0970827856509088
aF0.3483447004289174
aF0.20673556465911977
aF0.1469567755907707
aF1.3320883531302652
aF-0.32234705798020946
aF0.5342712775455258
aF0.5161362359444281
aF0.25262057693114504
aF0.20123324553194796
aF0.23437677295919526
aF0.9172789792463139
aF0.47129918225517214
aF-0.3378276903470076
aF0.3898918801080755
aF-0.03902910912376226
aF-0.3365653435478762
aF0.4809395369585025
aF0.4590551147304642
aF0.16013464692250273
aF1.01077796480881
aF-0.0527414782398905
aF0.040772270857476166
aF0.00877136090621396
aF-0.0464082685843711
aF0.3798114796411781
aF0.07845185249128962
aF-0.152683503585384
aF0.11446285021708438
aF0.5125894219849623
aF-0.028701939436779976
aF-0.009845746740587585
aF0.6679796992340948
aF0.5915275509104011
aF0.4653299613239285
aF-0.2282954326883839
aF-0.37967045842413255
aF0.5302415215568684
aF0.5474583837601134
aF0.6107661511596512
aF-0.55085848162596
aF0.55292215689597
aF0.00671687297261998
aF0.008510380379863378
aF0.15440607820651323
aF0.5902965022289327
aF0.23732504460300216
aF0.18438095679772795
aF0.5084885695927771
aF-0.04521086122140089
aF0.3086002868222394
aF0.27964846214659417
aF0.5101467241777153
aF0.5866048442171621
aF0.3780713527268902
aF0.5680047923148962
aF0.22492239760572097
aF0.32283205211073246
aF-0.12131120249626808
aF-0.432851002411445
aF0.19657240377917093
aF0.10516956471265215
aF-0.028293536189280575
aF0.1008703043662177
aF0.3276830383235421
aF0.6874113527383806
aF0.257565379056504
aF-0.05263523620238908
aF0.36902933668353594
aF0.13805331272044954
aF0.7204509033698662
aF0.4910189610357915
aF0.8334815810305969
aF-0.3950822145021664
aF0.046796837214475195
aF-0.2388433243703042
aF-0.02719488566431873
aF-0.0890624308555412
aF0.03856764880479496
aF0.4778265794804156
aF0.019031523406843658
aF-0.14703499081655766
aF1.095702066353236
aF0.14293190458247151
aF-0.5087516197546457
aF0.2448378347235376
aF0.3198575298909348
aF-0.14340223038617553
aF0.09125897505300011
aF0.034433642260995226
aF0.21520911633323445
aF-0.44519736239319835
aF0.33571546017107623
aF-0.15253452997835826
aF1.203995940858702
aF0.4929970117801017
aF0.03490067102028632
aF0.08228445138128157
aF0.20588968521881926
aF0.4000850433109992
aF0.003930704081511924
aF-0.13077935567040616
aF0.13467356903089756
aF-0.08030324220701758
aF-0.196605679507918
aF0.0023919941741884576
aF0.6128598441375276
aF-0.33339408090202305
aF-0.03849564490296342
aF-0.11996849324698057
aF-0.5052982671103924
aF-0.36815917661431413
aF0.441028792273539
aF0.16812475915387406
aF0.5596931874307077
aF0.13318188882131285
aF0.08119447373731094
aF0.5963077597459394
aF0.24323276715598643
aF0.17644295751114752
aF-0.2781867644425613
aF0.9226976986193957
aF0.3163688468830876
aF0.0
aF0.5375551988487913
aF-0.40065446000809435
aF0.2760616489509119
aF0.33339105558614573
aF0.1330493342739894
aF0.08339121675202947
aF-0.09781536102981568
aF-0.25085800830956917
aF-0.0611757715147191
aF0.43685937720096446
aF-0.5218606584892383
aF-0.005679335854964095
aF0.06878515004023733
aF-0.39585599430895546
aF-0.08318406149384107
aF0.2229288549592145
aF-0.006234926264454557
aF0.6806917970712777
aF0.6324676335595291
aF0.0
aF-0.12717309778901523
aF0.2692430111059748
aF0.11684688541798924
aF0.11783058039215866
aF0.5233528334595576
aF0.11615913944321833
aF0.0
aF0.6429846172516548
aF-0.030530117364149647
aF0.3397332377032818
aF-0.01956226042493475
aF-0.0007456603879816184
aF0.12978698418015855
aF0.0
aF-0.7421874908228601
aF0.0
aF-0.21097400421178455
aF0.01067397475472085
aF-0.008915504571571808
aF-0.004983602478338428
aF0.20018826512552554
aF-0.5182831435597977
aF0.22346931403641365
aF-0.007623114924814145
aF0.0952377171631712
aF0.09798344568767563
aF0.0
aF-0.09080261159764802
aF-0.050398550297573265
aF0.04682986272453423
aF0.5839595401143312
aF0.4084210608111902
aF-0.02150232103187703
aF0.0
aF0.36618634162202646
aF0.11420799868371884
aF0.10474865712141973
aF0.08112483245331814
aF-0.000842339892009754
aF0.0
aF0.0
aF-0.06903152578994888
aF-0.00246799008225403
aF0.010888644357151346
aF-0.01983168490227003
aF0.0
aF-0.00455525736191718
aF-0.002406238347994875
aF0.0687459070687854
aF0.0
aF-0.04839892377216956
aF-0.008675279548168591
aF-0.005480323447257993
aF0.0
aF0.0
aF-0.025103795240716202
aF0.0
aF0.09004454692644805
aF0.24524005811071353
aF0.0
aF0.0
aF-0.03845011901715844
aF0.1015440244762804
aF0.20628823489352605
aF0.021607107454834473
aF0.0
aF0.022721173829234328
aF0.0
aF-0.07622573515136243
aF0.0
aF0.2340553291334466
aF-0.004008066930924411
aF-0.00246799008225403
aF0.0
aF-0.0004891824083231884
aF-0.10182755332312295
aF0.0
aF-0.012296430908428621
aF0.0
aF0.05359906177392986
aF0.0
aF0.0
aF-0.0014104282719615913
aF0.0
aF-0.008189297419120781
aF0.21077061609815342
aF0.0
aF0.0
aF0.10748385989505092
aF0.12307704644517563
aF0.0
aF0.0
aF0.0
aF-0.0005404590771997276
aF0.0
aF-0.02899134828014911
aF0.0
aF0.12954270933788245
aF-0.043125134143133355
aF-0.0003956350272593008
aF0.0
aF0.0
aF-0.02944931129191978
aF0.0
aF-0.0004454158158635924
aF0.0
aF0.0
aF0.0
aF0.0
aF-0.0005066478388869363
aF0.0
aF-0.025467147503118088
aF-0.00443426428522775
aF0.21580552372954465
aF0.0
aF0.0
aF0.12743097359888772
aF-0.0019370486316456583
aF0.0
aF0.0
aF0.0
aF0.0
aF-0.009517619440178248
aF0.0
aF-0.08652632916045992
aF0.0
aF0.0
aF0.0
aF0.0
aF0.0
aF0.0
aF0.0
aF0.21580552372954465
aF0.0
aF0.0
aF0.0
aF-0.0003956350272593008
aF0.0
aF-0.05569421889932927
aF0.0
aF0.0
aF0.0
aF-0.0005404590771997276
aF-0.005234584862712622
aF-0.00246799008225403
aF0.0
aF0.0
aF0.0
aF0.0
aF-0.0005066478388869363
aF0.0
aF-0.0005066478388869363
aF0.0
aF0.0
aF0.0
aF-0.0005404590771997276
aF0.21540988870228658
aF0.0
aF0.0
aF-0.00246799008225403
aF0.0
aF0.0
aF0.0
aF0.0
aF0.0
aF0.0
aF0.0
aF0.0
aF0.0
aF0.0
aF-0.0011222975252522726
aF0.0
aF0.0
aF0.0
aF0.0
aF0.0
aF0.0
aF0.0
aF0.21540988870228658
aF-2.3015280189236345
aF0.11584196634302572
aF0.9840443835601504
aF-0.2842192482437107
aF-0.5643584926901696
aF0.5053005244348019
aF-0.3449988665985255
aF-0.709607674708906
aF0.6428529887821725
aF-0.03245333351131226
aF0.1796922064671787
aF-0.015408827306420042
aF0.5574012914012211
aF-0.2965700104176565
aF0.9169271341536877
aF0.6749094186043347
aF0.0
aF-1.0635778603172736
aF-0.5231611647631108
aF-0.5992734078411011
aF0.3286210434306885
aF0.2503687326800947
aF-0.5712562803030812
aF-0.20383298634912508
aF-0.14174028723413143
aF0.07759296918074256
aF-1.1192256324812124
aF0.16248659334620424
aF0.3415158629660139
aF0.6928222836810337
aF0.25352225744819373
aF-0.18089624338888485
aF0.8200774273987805
aF0.4595843718114447
aF-0.2404524990338772
aF0.6836642820246434
aF-0.18879194280280343
aF0.10734941391423937
aF0.3548872727794011
aF-0.4227799325853879
aF-0.1879582345278753
aF-0.3537290299052429
aF0.6512929632504929
aF0.0
aF0.19993445881882382
aF0.3275284846889529
aF0.37393222481022387
aF-0.23648273149515145
aF0.37170395639975723
aF-0.2408629757322469
aF-0.23140333936688384
aF0.03699390890246695
aF-0.015207241971850494
aF0.11203677948402874
aF-0.10414455591319517
aF-0.11417518084097865
aF0.4615682247526822
aF0.48513826904318863
aF-0.13472092655035076
aF-0.1396907070290725
aF0.8495724903543435
aF0.5869627917853646
aF0.19874285321011206
aF0.7545739544029444
aF0.30088576309780424
aF0.3153018500134699
aF0.24988714179903695
aF0.6916570012574901
aF0.10098510682000507
aF0.0505427448232084
aF0.20950604840594975
aF0.33248469591015034
aF0.738584533566929
aF0.1848175599021856
aF-0.3877090375643738
aF0.07350286386598583
aF-0.08737659769897008
aF0.16113718697389193
aF0.5566982738952746
aF0.41651275222729284
aF0.2298517138975623
aF0.12008744994511124
aF0.34913562228889844
aF0.3039469416479917
aF0.6534312956667719
aF0.06903732582827682
aF0.6669893772508555
aF0.3529329106172374
aF0.39456871391060416
aF0.5649448736561635
aF-0.30956470455855695
aF0.7337531241639024
aF0.6402022288857019
aF0.6952435629414216
aF0.5587540002776403
aF0.30382536019220263
aF0.24442570073603337
aF-0.07241499801117833
aF0.47276430989455537
aF0.11654926660451219
aF-0.06312363464236131
aF-0.33505694667931696
aF-0.06992230820007518
aF0.6131634379915697
aF-0.10035399306838884
aF-0.645798513882451
aF0.07755704690945649
aF0.07703954906002075
aa(lp2
F-0.17763248226744618
aF1.015052650717591
aF-1.1926851330040964
aF-1.5581038052079321
aF2.8882414278419666
aF0.3006511158792599
aF-0.20087519993619524
aF-0.13867446931158506
aF0.3139845938087043
aF0.4268286369699845
aF0.01466846849242563
aF-0.056039187427127886
aF0.5759265872814378
aF0.7656728360015665
aF-0.761716011298666
aF-0.24662097054906662
aF0.07254144558627716
aF-0.07727027227697895
aF0.5326307478187753
aF0.7072848541270592
aF-0.18474270863560036
aF-0.21789310660077302
aF0.11654254946168449
aF0.614836530918549
aF0.022492497861397225
aF-0.20251394602589334
aF0.5622827006393463
aF-0.44446849795756616
aF0.2891386265109849
aF-0.370849176774278
aF-1.4732031182929848
aF-0.3085227196409641
aF0.1381846731653451
aF-0.14615645008114075
aF-0.003483890140510837
aF0.0
aF-0.16011654933902777
aF0.4679529949526567
aF0.0
aF0.0
aF0.08416623046166474
aF0.3374978275142402
aF-0.1664884895084452
aF0.0
aF0.5993614352544965
aF0.0
aF-0.17033312141534585
aF-0.3157211775605061
aF0.0
aF0.0
aF0.5381482672876539
aF0.2077649856269373
aF-0.00660132689480182
aF-0.4041411062540038
aF0.0
aF0.0
aF0.0
aF0.20465526464436992
aF0.0
aF1.0063965315742314
aF0.07089465909464233
aF0.0
aF-0.059546309257188144
aF0.14961447972010483
aF0.27008612044078295
aF0.0
aF0.0
aF0.7412742257550392
aF0.44434759375883187
aF0.0
aF-0.33911952718338356
aF-0.0781425180624887
aF0.0
aF0.0
aF-0.2308269736068833
aF0.0
aF0.1848658211560726
aF0.17365175300322933
aF0.0
aF-0.014242416644852558
aF-0.27817441466773474
aF0.0
aF0.0
aF0.0
aF0.7348134013672455
aF0.0065838681538562425
aF0.3623252363004295
aF0.4079234413190155
aF0.0
aF-0.08659798931193638
aF-0.6792281374766698
aF0.6177911761490238
aF-0.14263503321289087
aF0.196207696858864
aF-0.2814826336412034
aF0.7961099392385984
aF-0.00753964485012347
aF0.0
aF-0.3718179482685013
aF-0.2624064706543904
aF-0.4253895367797721
aF0.5076354103939594
aF0.0
aF0.0
aF0.5810793365305014
aF0.17065557709058296
aF-0.014354959895090136
aF-0.26307332102560754
aF0.2149223578719422
aF-0.07893683406260293
aF0.0
aF0.33906467637649174
aF0.0
aF-0.26198544200204266
aF-0.052807417368156244
aF0.36214303637358086
aF-0.2689918650809923
aF0.3693763514564664
aF0.28824451311807864
aF-0.30166046527461604
aF0.587153786374934
aF0.005014741228121914
aF0.129420436647327
aF-0.18150417565190127
aF-0.014675934231384214
aF0.7458649061608916
aF-0.630011041340288
aF0.37971953663980673
aF-0.07446731888610031
aF0.10705706941992363
aF-0.018887481313942897
aF0.5174906174881488
aF-0.2168983905492519
aF1.4239215314721172
aF-0.08933246400471065
aF-0.31992462873383526
aF0.17982708931534713
aF-0.2187239572286819
aF-0.20799728309799645
aF-0.5757275408381975
aF0.13540159886908232
aF0.8888763967340866
aF0.0
aF0.0
aF0.0
aF-0.16052869482956844
aF0.703867359151704
aF0.0
aF0.0
aF-0.2243814955868195
aF0.0
aF0.0
aF0.40870058576348883
aF0.0
aF0.0034455547191386744
aF-0.5852036513377674
aF0.0
aF0.0
aF0.16140512858882713
aF0.0
aF-0.033539788797852806
aF-0.044398204157880664
aF0.0
aF0.0
aF0.0
aF0.10270829664554844
aF0.0
aF0.7722423879162288
aF0.3082159322660837
aF-0.0316923533212969
aF0.0
aF-0.017768085025612557
aF-0.015746218357944878
aF-0.14758566927779446
aF0.0265300200810445
aF-0.2936943126618861
aF-0.3816434215159563
aF0.0
aF0.0
aF0.19548361960808994
aF0.13961480104365773
aF0.4705138794114051
aF-0.1654350999092259
aF0.0
aF0.0
aF0.09791789081258345
aF-0.27350871453318704
aF-0.03698676902890506
aF0.06039638751690055
aF0.0
aF1.0410900283588336
aF0.0
aF0.061176563765236835
aF0.0
aF-0.5578137244919954
aF-0.09340470842355329
aF-0.15452601656163203
aF-0.002181977999876679
aF0.0
aF-0.17417626473375675
aF0.0
aF0.0
aF0.0
aF0.5088368438717363
aF0.0
aF0.008590911021121224
aF0.9708313429145483
aF-0.4611746873656696
aF-0.5874231683510691
aF-0.31186627437420805
aF0.0
aF0.0
aF-0.05800644693059316
aF0.04372434164207512
aF-0.461014503788939
aF-0.9873811364005021
aF0.0
aF0.0
aF0.0
aF0.44030643933344393
aF0.20510746215044465
aF-1.821228791993178
aF-0.67306358841728
aF0.6774832374946292
aF-0.05269601885684664
aF0.5924089212031711
aF-0.31464011926296975
aF0.7351853441413511
aF-0.40684846973241395
aF-0.06378169582305075
aF-0.059674369878986624
aF-0.20339733288272932
aF0.08703073601193857
aF0.8316490079997031
aF0.01075206588328873
aF0.5848163758426863
aF-0.7050157220203526
aF-0.3806744729175628
aF-0.1156800427130736
aF0.6712049600651329
aF0.1442520142211045
aF-0.12795479726161066
aF-0.3677231881582406
aF1.0155585986462832
aF-0.00436718405077255
aF0.1345526923043226
aF0.09882079135229145
aF0.7881202754140131
aF0.6099671095728573
aF0.191823653309719
aF0.0
aF0.0
aF0.0
aF0.23000523237008866
aF0.0
aF0.0
aF0.0
aF-0.2769300294960073
aF0.0
aF0.0
aF0.0
aF0.0
aF0.0
aF0.6502097083042179
aF0.0
aF0.0
aF0.0
aF0.0
aF0.0
aF-0.19200428559023508
aF0.0
aF0.0
aF0.0
aF-0.06859583637494991
aF0.0
aF0.7977428273973836
aF1.0802212589423243
aF0.0
aF0.0
aF0.0
aF-0.26689202681289254
aF-0.0010515331829628566
aF-0.0021437130445399206
aF-0.06587418721475072
aF0.4932198927995524
aF0.0
aF0.4210357109963907
aF-0.4175464596312087
aF0.0
aF-0.41337868003456846
aF1.2472124198619121
aF0.0
aF0.07796230050812428
aF0.021512201444236
aF0.0225686704981231
aF0.0021198554206962993
aF-0.058815618423919726
aF0.0
aF-0.012458877317437533
aF0.0
aF0.17895846098868315
aF0.0
aF0.528962680946093
aF-0.16396607612846595
aF-0.49754385510650195
aF0.6438242652059778
aF0.060968656348151004
aF0.6017077624389858
aF-0.41720026616937445
aF0.049941701534517345
aF-0.045721763705033426
aF0.6310050728513774
aF0.042272084392294206
aF0.14141988305073566
aF0.7072736508950451
aF-0.4351825098516144
aF0.002797955781002978
aF-0.04492260389475017
aF-0.30733319206023085
aF0.0
aF-0.12350245071975915
aF0.28762565674821144
aF-0.6355938874214819
aF0.3127489760387715
aF-0.07272651867406671
aF-0.02801119654969765
aF0.0
aF0.24022705496061567
aF0.073621171598096
aF0.13157588179434443
aF0.44012167848733963
aF0.6862070502448211
aF0.0
aF0.0
aF0.00419640396221596
aF-0.007933838116830943
aF0.0
aF0.0
aF-0.12509010154787217
aF0.0
aF-0.02385041941691417
aF-0.09393934553045157
aF0.2357718469868966
aF-0.09392029506081365
aF-0.23333671921813537
aF0.07350022231965507
aF0.0
aF-1.195017782097559
aF-0.1816168833746222
aF0.0
aF0.20925965819974607
aF0.0
aF0.0
aF0.0
aF1.0647131510542311
aF0.0
aF0.12304915027790933
aF0.4302276355408126
aF0.0
aF-0.23676055327120135
aF0.11971059304526366
aF0.439203453873764
aF-0.12171957049069361
aF0.25564168300916207
aF0.25631821045622855
aF0.5390956286258158
aF-0.6608572089423714
aF-0.8366608574800951
aF-0.6336814652844714
aF0.04026574842751887
aF1.2379774028710169
aF0.24335348083150862
aF-0.00117714564257156
aF-0.004643515797336194
aF-0.7929540989110186
aF0.17107003664304932
aF0.0381780212640248
aF-0.24778568470704884
aF0.09569718001389732
aF-0.022455285876992904
aF0.0
aF-0.2430528950293422
aF-0.04847805467723709
aF-0.04403375137863794
aF-0.2325502699284744
aF-0.27115522529258296
aF-0.1414958456085778
aF-0.8511108240847256
aF0.007142734636570626
aF-0.20315077518447913
aF-0.19725501058435835
aF-0.7835863908428978
aF-0.3335217473389643
aF0.2735032867454618
aF0.1468537675084126
aF0.6397185061392447
aF-0.2332616422099258
aF-0.28932704198875653
aF-0.7744239605567323
aF0.7394719932135956
aF0.0
aF0.7981404733065989
aF0.12260926198477379
aF0.1571414625466196
aF-0.7812700808058048
aF-0.09834509156693069
aF0.28343053624862724
aF0.22807157626973773
aF-0.6339032603331735
aF0.544819648950228
aF-0.08543033830671132
aF0.1545866121120719
aF0.0
aF0.0
aF0.0
aF0.14856466032170262
aF0.0
aF0.0
aF1.1857872818193091
aF-0.24305881190465656
aF0.0
aF0.0
aF-0.5633488649603839
aF0.0
aF0.0
aF-0.23726052374271886
aF0.4259705544015213
aF0.0
aF0.05695650405211607
aF0.2322170987592294
aF-0.4617918173527306
aF-0.12526538273486187
aF0.0
aF0.0
aF0.0
aF0.052969708986841786
aF0.0
aF-0.12194994064359889
aF0.0
aF0.0
aF0.0
aF0.0
aF0.0
aF0.0
aF0.0
aF0.0
aF0.0
aF0.0
aF0.0
aF0.0
aF0.0
aF0.0
aF0.0
aF0.0
aF0.0
aF0.0
aF0.0
aF0.0
aF-0.12194994064359889
aF0.0
aF0.0
aF0.0
aF0.0
aF0.0
aF0.2212447830125239
aF0.1655958922298973
aF0.25852274586299245
aF-0.413849821724755
aF0.45441359867818787
aF-0.12848321449177896
aF-0.2854902047825257
aF0.6879045915743778
aF0.4252987739593883
aF0.9304755031153076
aF0.5160960998944321
aF-0.7538773538079936
aF0.23110445712437244
aF0.4357176651567263
aF-0.6738099810881845
aF0.5896320538509724
aF-0.12059980689800454
aF0.006615112438051553
aF-0.5491101921675621
aF-0.3505420133106338
aF0.04836625451410463
aF0.8125783707019677
aF-0.8862522981514467
aF-0.06263009442976769
aF-0.01717268918694628
aF-0.3071864312028153
aF-0.08838353379573234
aF0.3818537700591472
aF-0.018752944773696118
aF-0.12708349335610383
aF-0.7093739113269006
aF0.1725908254407181
aF-0.5143694596200437
aF-0.004927794096267404
aF-0.01295791927720621
aF0.7439017411017114
aF0.10127630491962691
aF0.0
aF-0.6443716081015661
aF-0.28905927910702733
aF0.023709832321240583
aF-0.0011845066216306566
aF-0.8475326576829667
aF-0.4789518216639435
aF-0.1294834270646406
aF-0.05095925572605973
aF0.44532411900350566
aF1.1819572623287968
aF1.1869411533072325
aF-0.05309046756394997
aF-0.07175229731519077
aF0.0
aF1.0614960772529682
aF0.0
aF0.05188180906938667
aF-0.554268788272129
aF-0.032189775536084375
aF-0.42081317373012217
aF0.0
aF0.3781199169726209
aF-0.28184556498756047
aF-0.016624837981236748
aF0.6019058144117698
aF0.05851308952881779
aF0.0
aF0.002764514848741962
aF-0.4984432792492386
aF-0.03460045131870184
aF0.5017797915212298
aF-0.6175318053941725
aF0.0
aF0.0
aF0.14468506282795837
aF0.01657155111099549
aF0.6635919414974341
aF-0.13095537839147134
aF-0.02642029685536021
aF-0.15301431709704205
aF0.0
aF-0.39026739734345073
aF-0.03722492800319979
aF-1.0429773786533243
aF-0.8816864318988139
aF-0.3311830984392528
aF-0.3244854361192856
aF0.7086578824411153
aF0.40461542727897365
aF0.24026186028377305
aF-0.8485751936147267
aF-0.00603244807167213
aF-0.5677106588246204
aF0.0
aF0.02195137965043386
aF0.19526618725754458
aF-0.006133842360545843
aF0.6509882968274567
aF0.0
aF-0.0038102347347500963
aF0.0
aF-0.054958144139660596
aF-0.7346134289214454
aF-0.12220290975099093
aF0.0
aF-0.017488884939258192
aF0.0
aF0.4073191820760527
aF-0.1268955362685542
aF0.6020810263348645
aF0.14386488783111384
aF-0.29627309858146533
aF0.0
aF0.0
aF0.0
aF-0.22745590734959686
aF0.0
aF0.0
aF0.0
aF0.2883609166424781
aF0.0
aF0.17015428355733733
aF-0.016416112803709592
aF0.0
aF0.0
aF0.46074512996465955
aF0.0
aF0.0
aF0.17000965895966738
aF0.007820418640625106
aF0.0
aF-0.005885309607769017
aF0.430253158705424
aF0.0
aF0.0
aF0.25067689054037096
aF0.0
aF-0.6684549895063405
aF-0.4713888624210422
aF0.0
aF0.0
aF0.0
aF-0.2938840788812654
aF-0.008668541710902786
aF0.0
aF-0.37988123115887357
aF0.2751108269261405
aF0.0
aF0.0
aF-0.07862345499630044
aF0.0
aF0.6309529882729088
aF-0.7067817155752054
aF0.0
aF0.0
aF0.22114122430144426
aF0.041996585762615606
aF-0.007533757564839047
aF-0.0021596088840574626
aF0.0
aF0.0
aF0.0
aF-0.10443310725225252
aF0.0
aF-0.1299433728738476
aF0.0481103713803154
aF0.0
aF-0.018167382147836458
aF0.0
aF-0.4082144379390524
aF-0.0466183427868851
aF0.0
aF0.0
aF0.016632813631187404
aF0.0
aF0.0
aF0.0
aF0.0
aF0.0
aF-0.02341137070802052
aF-0.0026973216117685632
aF0.0
aF0.0
aF0.0
aF-0.2650335811748709
aF-0.01951511912086693
aF0.0
aF-0.01747146240328394
aF0.0
aF0.08339186488061155
aF0.0
aF-0.17307933758232733
aF-0.1434729773656733
aF0.28265964088210593
aF0.16564054662705954
aF-0.19707748213239382
aF0.0034454844699468423
aF-0.006239166872989345
aF0.0
aF0.0
aF-0.16271709521102792
aF0.11870913401749074
aF-0.15649412631962167
aF-0.7458942339220298
aF-0.008899798653302681
aF0.8287999881319078
aF0.059284026588762556
aF0.1729553695599232
aF0.0
aF-0.25567703792752333
aF1.2249243773587406
aF0.43317325214381003
aF-0.2724536644300697
aF0.013797260011461497
aF-0.013979955727805433
aF0.0
aF0.0
aF0.0
aF-0.018404951839865367
aF-0.13216677962033457
aF0.03477467273386319
aF0.0
aF0.0
aF-0.4308351944642626
aF0.0
aF-0.003060267809634135
aF0.0
aF0.17989608580145733
aF0.0
aF0.0065838681538562425
aF0.03504840311046288
aF0.1310018489652288
aF0.0
aF-0.0823768521709404
aF0.0
aF0.0
aF-0.18271434675704795
aF0.11133146416841143
aF0.0
aF0.034773432749846
aF0.0
aF0.0
aF0.0
aF0.0863356302874915
aF0.0545111047302404
aF-1.1155296642683776
aF-0.8460854473264953
aF-0.9276757137178889
aF-0.6589607983509657
aF-0.29439546455689913
aF-0.4928171205440369
aF-0.40395466828405036
aF-0.4134014490873224
aF-0.4312733641868611
aF-0.06809305910796262
aF-0.030453688642028128
aF-0.5337895617888347
aF-1.3125209582140596
aF-0.40725607854597323
aF-0.30190340904991014
aF-0.7013398304596811
aF-0.04428959884248182
aF-0.46852127728430343
aF-0.9573897734912642
aF-0.7978798588118816
aF-0.07191929366565328
aF-0.35042083130867147
aF-0.366318602735366
aF0.0
aF-0.12847729992054216
aF0.0
aF-2.3434984956482303
aF-0.46952796343765396
aF-0.2746919146971892
aF-0.3542961894786365
aF0.4421163449285981
aF-0.6646005291487666
aF-0.1079535814983239
aF-0.016333475694982957
aF-0.5640600139142798
aF0.8028437418821065
aF-0.3495191182863207
aF-0.4112010506024193
aF-0.025150495188701667
aF0.028252711665835113
aF-0.4529977321535624
aF-0.3372136496162207
aF0.1579135453597283
aF-0.0821069084463153
aF-0.1038600687508633
aF0.34115908225036523
aF-0.34150090831282026
aF0.3359579258021011
aF0.6517337546932719
aF0.807641007954561
aF-0.11099005487622461
aF-0.18249269103026522
aF-0.4443431409140981
aF-0.5150331655477292
aF-0.35295194208502606
aF0.5328250672131541
aF-0.33898451566526994
aF-0.20150319140230785
aF-0.5789116341618444
aF0.3804733250410466
aF0.8378920797769532
aF0.34149047478027017
aF0.8370834819128153
aF-0.16903689023077131
aF-0.8703516808931275
aF0.7534367123857746
aF-0.26415063211113216
aF0.08864088521032702
aF0.16611524831014107
aF0.5070638538790163
aF0.20149268833456638
aF0.2842593760584168
aF0.17868865711827372
aF-0.20925010629490154
aF-0.1616796450101202
aF0.0139677212934239
aF0.34389489798457323
aF-0.12129809484249414
aF0.31628561317109694
aF1.0402789405883583
aF0.22594112213718995
aF-0.5216952389380004
aF0.1850478512994465
aF-0.11601942842063727
aF-0.05153343178754544
aF-0.05529716617395848
aF-0.31596029372000384
aF0.5865911418148115
aF0.8830506986305451
aF0.5828579292855401
aF-0.19157430509477646
aF-0.14152139480193185
aF0.4687688633963751
aF0.6024425922706289
aF0.4033750175627897
aF-0.24104332956298669
aF0.07316838212887515
aF0.04837609221376275
aF0.41485196671850133
aF0.7845087661353586
aF0.3994324167871772
aF-0.0027390399927241698
aF-0.4417463344383702
aF0.3443402186362202
aF0.132265467355849
aF0.6730274762444545
aF0.38578595609924404
aF0.4351106308622053
aF-0.20387683945441637
aF0.14900586870577093
aF0.17090589492682248
aF-0.1200696480755303
aF-0.16838544290738477
aF-0.08207497905370942
aF-0.750177086623704
aF0.7475650238274897
aF0.8153773199008031
aF0.23238319303947683
aF-0.03564711000870776
aF0.7070783938383269
aF-0.005749256829393686
aF0.6901117960090082
aF-0.4957108510290538
aF-0.21087087449869943
aF0.05435426320171336
aF0.8393261870607168
aF0.3391480073697084
aF0.4064979555432436
aF-0.10079297281440085
aF-0.03275200672767088
aF0.055684294238573635
aF0.0600649586966675
aF0.5987793149768476
aF-0.05933699729463439
aF0.44539052867257795
aF0.08872672084996239
aF-0.2742323139809953
aF-0.22487315565902666
aF-0.24619619003723864
aF0.11401811041949741
aF0.215185199557907
aF0.5266653150396738
aF0.44453071015116763
aF0.24898330172684735
aF0.04284028621621041
aF0.031037405494570566
aF0.2522382709771863
aF-0.393243956353407
aF0.375274779706559
aF0.3856128380150686
aF-0.17052143558712904
aF-0.08983564320033662
aF0.11481628790647998
aF0.47509822618077197
aF0.19040139671029982
aF-0.18006034892423287
aF-0.47810524919855035
aF-0.05986979116605901
aF-0.007464723301593327
aF0.003611333680870452
aF-0.024695951331227095
aF0.6608919557680902
aF0.2586829111460068
aF0.16433916309253854
aF-0.7904429073462265
aF0.36740008194250234
aF0.5612698204613963
aF-0.125481284151098
aF-0.5387668724043118
aF0.900402338957478
aF0.19556068500160756
aF-0.015897734615491495
aF-0.006997196476049079
aF0.21515780870059495
aF-0.274670735379816
aF0.55726411644629
aF-0.49640024831895885
aF-0.23231209062369396
aF-0.014989175428453143
aF0.637585273149268
aF0.36407103478878483
aF0.33736980927092136
aF-0.8210849441762474
aF0.14907213963851032
aF-0.05370450256009051
aF0.1118508468421243
aF0.5489202521773332
aF0.030342332227646856
aF0.2469484762911722
aF0.31189311701064654
aF0.06751710202961249
aF0.053874485627352885
aF0.7913572415602348
aF0.6179688969260133
aF-0.31203693141595584
aF0.31504066875439896
aF-0.09510215192465044
aF0.10124817455836445
aF-0.06502264836328532
aF-0.29648127813280545
aF-0.4477341179946405
aF-0.11282065871070603
aF0.8408050288975489
aF-0.6322042444143874
aF-0.10691125781009146
aF0.0
aF-0.007704852367103448
aF-0.5269867425854303
aF0.4399436921951667
aF-0.11775565650743604
aF0.010891612249907898
aF-0.03493908695929672
aF0.09876922758587396
aF-0.22417193477817793
aF0.07331140971525157
aF0.05697835279503881
aF0.714192185382036
aF-0.006574377351359828
aF-0.12652390600672442
aF0.03854142116328209
aF0.1572428330487497
aF-0.0034208667570424776
aF-0.03353159090558946
aF-0.057351850695443636
aF0.13401740386657973
aF0.0
aF0.04258073129121891
aF-0.377046582987957
aF-0.054791326805924453
aF0.590349129419285
aF-0.3358602641175606
aF-0.002475241255776206
aF0.0
aF-0.29842059839981416
aF-0.05351665366356861
aF0.12422943246647203
aF-0.005826033272704674
aF-0.00117714564257156
aF-0.07131925417142343
aF0.0
aF-0.23293825463978787
aF0.0
aF0.4308278702672965
aF0.030766114977088237
aF-0.042703069972169036
aF0.1266385216854921
aF-0.013045005921288617
aF1.1186374005343356
aF-0.002181977999876679
aF-0.008787840395917056
aF0.02688075042052959
aF-0.07797901165807576
aF0.0
aF-0.001541752026462832
aF0.012421818941255278
aF-0.04558151303604234
aF-0.12690164337652948
aF-0.20357634675999497
aF-0.001238976287247794
aF0.0
aF-0.0854159680692369
aF-0.04700471627350536
aF0.01237418691411373
aF-0.004130233882360387
aF-0.001937239063427598
aF0.0
aF0.0
aF-0.22006174122363759
aF0.21516523128585857
aF0.6436561819873461
aF0.24351657157946202
aF0.0
aF-0.011217384478149878
aF-0.003438107581024588
aF0.1340814343488528
aF0.0
aF-0.03721256860739623
aF0.04069215939928127
aF-0.010621195017317408
aF0.0
aF0.0
aF-0.030949670744370498
aF0.0
aF0.31467721059804166
aF-0.05931541295103075
aF0.0
aF0.0
aF-0.07442464739395867
aF-0.05888483144024693
aF-0.01688847240065369
aF-0.003066179313612423
aF0.0
aF-0.003818244211989793
aF0.0
aF0.1018826356283796
aF0.0
aF0.4064778542747335
aF0.007514938891244506
aF0.21516523128585857
aF0.0
aF-0.0011308432101992322
aF0.27395513210906086
aF0.0
aF-0.0017471953902166515
aF0.0
aF-0.11168733142525095
aF0.0
aF0.0
aF-0.0031299870107362997
aF0.0
aF-0.008408644099593968
aF-0.014231590907117342
aF0.0
aF0.0
aF0.038216918143505016
aF-0.03591179629029549
aF0.0
aF0.0
aF0.0
aF-0.0012388887571656983
aF0.0
aF0.019216743727768024
aF0.0
aF0.1747678923957047
aF-0.14475003510194553
aF-0.0014404010982333648
aF0.0
aF0.0
aF0.26337105405846567
aF0.0
aF-0.0011740504306536658
aF0.0
aF0.0
aF0.0
aF0.0
aF-0.0014112860693069945
aF0.0
aF0.021039690299841558
aF-0.003146359341712098
aF-0.004784446320453619
aF0.0
aF0.0
aF-0.01300886906368547
aF-0.0012578762467542071
aF0.0
aF0.0
aF0.0
aF0.0
aF0.03875492033585331
aF0.0
aF0.15422957995065745
aF0.0
aF0.0
aF0.0
aF0.0
aF0.0
aF0.0
aF0.0
aF-0.004784446320453619
aF0.0
aF0.0
aF0.0
aF-0.0014404010982333648
aF0.0
aF-0.10596534628721029
aF0.0
aF0.0
aF0.0
aF-0.0012388887571656983
aF-0.007499116500922825
aF0.21516523128585857
aF0.0
aF0.0
aF0.0
aF0.0
aF-0.0014112860693069945
aF0.0
aF-0.0014112860693069945
aF0.0
aF0.0
aF0.0
aF-0.0012388887571656983
aF-0.006224847418686995
aF0.0
aF0.0
aF0.21516523128585857
aF0.0
aF0.0
aF0.0
aF0.0
aF0.0
aF0.0
aF0.0
aF0.0
aF0.0
aF0.0
aF-0.001355654871176111
aF0.0
aF0.0
aF0.0
aF0.0
aF0.0
aF0.0
aF0.0
aF-0.006224847418686995
aF1.8203064176919006
aF0.23145874914449688
aF-0.9018890204097263
aF-0.39738695761585774
aF-0.2923507527476458
aF-0.3897441403733785
aF-0.08612877527268958
aF0.7485326870049014
aF1.297608337768068
aF0.07545866704998352
aF-0.866158123318875
aF0.35237196877144095
aF-0.09968499097830641
aF-0.02547060851159544
aF-1.1031959238662867
aF-0.3387544131714903
aF0.0
aF-1.106450369045021
aF-0.6824499868661666
aF0.014831884590805648
aF-0.5633434258065987
aF-0.0031236014233787766
aF0.5773495648400343
aF0.5230505951266273
aF-0.7877689488775457
aF0.19843626954297333
aF0.37125570416201364
aF-0.1738080734767265
aF0.5677142026347725
aF-0.2721037143215021
aF0.6786825566371191
aF-0.3015298371738449
aF-0.08137321989230695
aF-0.32168180350396003
aF0.04267790320494592
aF0.805149302066841
aF0.22262558968096968
aF0.5685104409772835
aF-0.47738818418366435
aF0.014466054358602182
aF0.19240153268402999
aF-0.8548136340378378
aF-0.22699828465787297
aF0.0
aF-0.0265083457233137
aF0.1334199586441443
aF1.131193686991553
aF0.15968083214418538
aF0.303963080364051
aF0.5208163618599172
aF0.31174503224311884
aF0.6125751303239587
aF0.3235560952922642
aF0.24725371984667627
aF-0.3674077759805834
aF0.5700656037025409
aF-0.03477266938231047
aF0.5508477743496841
aF0.1540160998437591
aF0.6667855005421046
aF0.25523425228956376
aF0.43055741737864556
aF0.3993216812391912
aF-0.6806975692178271
aF-0.032485793900571075
aF0.029200778283742616
aF-0.25067252453854233
aF0.49403483848074875
aF0.011115534684199225
aF0.6052464243668996
aF-0.07214279836416311
aF0.276764030975685
aF0.66940925744935
aF0.6542215775208321
aF-0.12581001908607248
aF0.23438907594784764
aF0.25538666618867667
aF-0.09722361438330206
aF-0.08867944794056166
aF-0.06439360285658491
aF-0.017443927239746578
aF0.0006399311415964254
aF0.14477348863943132
aF0.24556890004676823
aF0.6227534969034515
aF0.1906698351089081
aF0.03661867824612963
aF0.6835910773455302
aF0.33982948488293674
aF0.3551764620693622
aF0.31756063928982764
aF-0.5949840841745944
aF0.04109844719016288
aF0.7482288664651126
aF-0.04591359062880013
aF-0.09760706744905215
aF0.1269260303191856
aF0.07065364786706914
aF0.0859273465691597
aF-0.1507973117627177
aF0.13814562023366556
aF0.08566789121767349
aF-0.1645222268679253
aF-0.034408168477949065
aF0.11808793965748818
aF-0.3270090017719956
aF-0.022076365130996943
aF0.20753805031637032
aa(lp3
F0.43963291541173544
aF-1.683857076781806
aF2.1234899921953025
aF2.8035992943243655
aF-5.919964075392473
aF-0.461832081543021
aF-0.13605048640225126
aF0.08497127190473627
aF-0.25537704059968075
aF-0.5386161826819044
aF-0.18208062975999714
aF-0.04822435129185271
aF0.2551508531203859
aF0.004931945187403652
aF0.7416424882824509
aF-0.0585651728572264
aF-0.2165172887549791
aF0.28587782888043295
aF-0.732263202311879
aF-0.9293434115866458
aF-0.00930164368328282
aF0.7230261320627609
aF-0.006259133491695709
aF-0.8099476507926117
aF-0.5214374781365324
aF0.4231379432766251
aF-0.376265461827822
aF-0.5378937043854675
aF-0.31153075557779336
aF-0.3223107238122706
aF1.6197018141022057
aF-0.06331671587383633
aF-0.846260942672715
aF-0.7459296293221099
aF-0.5306031161150178
aF0.0
aF-0.03253270831022545
aF0.1955564097686379
aF0.0
aF0.0
aF-0.02858147041474619
aF-0.5072469617269766
aF0.009543586930112036
aF0.0
aF0.024015632317334414
aF0.0
aF-0.011214072655641739
aF0.09117557164921795
aF0.0
aF0.0
aF-0.475757305822746
aF-0.02938734278750122
aF0.014228835870056996
aF1.0288902701907023
aF0.0
aF0.0
aF0.0
aF-0.16434636254972693
aF0.0
aF-1.6377597720832513
aF0.4406107764696603
aF0.0
aF0.14853632688710036
aF-0.010531233345770087
aF0.12737205740409047
aF0.0
aF0.0
aF-1.6666701048996106
aF0.4086858994107856
aF0.0
aF-0.23132074064257324
aF-0.34116799167715545
aF0.0
aF0.0
aF-0.18374691831322196
aF0.0
aF-0.011954208578948383
aF-0.1512572706723426
aF0.0
aF0.1382989150597942
aF0.0771886593229971
aF0.0
aF0.0
aF0.0
aF-0.11439936171804682
aF-0.0020244558101606153
aF-1.2735244841695583
aF-0.09700379542911182
aF0.0
aF-0.08721722527351634
aF-0.6828487429130926
aF-0.4029434502516141
aF-0.10608819669904336
aF-0.14931510120300018
aF0.8254985450469337
aF-0.6204450061415068
aF0.01386208761570824
aF0.0
aF0.10312036259533214
aF-0.20156342305232613
aF-0.0064824570173932505
aF-0.4844909186156787
aF0.0
aF0.0
aF-0.7591307428372523
aF-0.23234627235261793
aF-0.008717429653508947
aF-0.11567073047887412
aF-0.016794937364422873
aF-0.12158717375087154
aF0.0
aF0.02365220568374595
aF0.0
aF0.16125533714949042
aF0.8690194026271786
aF-0.5233805368630212
aF0.32794532368446033
aF0.2696460891323026
aF0.670026515194547
aF-0.1928242390682934
aF-0.21378639293161733
aF-0.10380643875879578
aF-0.10549970504512862
aF0.11796008639879209
aF-0.12909646621444865
aF-0.3307053977279331
aF0.3428535238814167
aF-0.06519771067326474
aF-0.3902417960586081
aF-0.20471390074882184
aF0.0687950880804551
aF-0.6311308511284173
aF0.7524536505473055
aF-1.2007517835360109
aF-0.16763064080708936
aF0.6698847223618988
aF-0.7805977150950149
aF0.014669342926840814
aF0.26895335021211075
aF-0.09610531856808396
aF-0.5663535663741022
aF0.11812198214347383
aF0.0
aF0.0
aF0.0
aF-0.1542445284925095
aF-1.1866048943728666
aF0.0
aF0.0
aF0.12243263720167147
aF0.0
aF0.0
aF-0.39798912723139046
aF0.0
aF-0.000732032786223631
aF-0.1635244334556797
aF0.0
aF0.0
aF0.06050396099599986
aF0.0
aF0.01391803668292625
aF0.1175822985313424
aF0.0
aF0.0
aF0.0
aF-0.14204958241445184
aF0.0
aF-1.885455968054783
aF-0.32797030773328084
aF-0.013463426790700676
aF0.0
aF-0.0087762376993151
aF0.19071666652175723
aF-0.03431962225789041
aF-0.46805119611490925
aF0.5228291637314608
aF-0.3721972964641174
aF0.0
aF0.0
aF-0.17894300037513364
aF-0.16142867453660045
aF-0.2952079640106327
aF-0.31282477536872083
aF0.0
aF0.0
aF-0.16884050986663665
aF-0.28645647636261673
aF-0.535192298600315
aF-0.29465626217682045
aF0.0
aF-0.14767156211124477
aF0.0
aF-0.19397873954838687
aF0.0
aF-0.10721026497723538
aF0.3150080856006191
aF0.36396996874112975
aF-0.22128733603653716
aF0.0
aF0.9627197565736966
aF0.0
aF0.0
aF0.0
aF-0.7539807040436713
aF0.0
aF-0.0038356082114973863
aF-0.07069173654113511
aF-0.3645735911586223
aF-0.2662107600860616
aF0.3842491569518476
aF0.0
aF0.0
aF-0.6978999345363357
aF-0.036323095512736374
aF0.1716766168158241
aF-0.37200294365430886
aF0.0
aF0.0
aF0.0
aF-0.415673247057906
aF-0.13829623839122146
aF4.028329174955224
aF0.6036128362515664
aF-0.4265422526320774
aF-0.44209215975129135
aF-0.24455449497085094
aF-0.11569720528563612
aF-0.5388785105967172
aF-0.23437110223041596
aF-0.0028519075742447775
aF0.14534166078124863
aF-0.006736308652956509
aF-0.5044926818319079
aF-1.4948516043450835
aF-0.6566577667039196
aF-1.1714361654887862
aF0.47461186847842524
aF-0.4429467038997337
aF-0.13782989132641973
aF-0.48195493131947126
aF0.24203670838187605
aF0.1163881889759876
aF-0.22672339438133313
aF-0.38328956960513133
aF-0.020665518694917263
aF0.23784169681569256
aF-0.0036253864822087967
aF-0.47403533631058964
aF-1.33000202965657
aF0.7797232652298031
aF0.0
aF0.0
aF0.0
aF-1.1098368121593642
aF0.0
aF0.0
aF0.0
aF-0.12548297019249935
aF0.0
aF0.0
aF0.0
aF0.0
aF0.0
aF-0.6843799830256166
aF0.0
aF0.0
aF0.0
aF0.0
aF0.0
aF-0.1405274900365835
aF0.0
aF0.0
aF0.0
aF-0.006492705933638697
aF0.0
aF-1.4225396075690535
aF-0.5503040411345919
aF0.0
aF0.0
aF0.0
aF-0.7518501323271973
aF0.0019406404152951385
aF0.010669103739281193
aF-0.00182144475617495
aF-0.6692171394341191
aF0.0
aF-0.0606162135333323
aF-0.0960970902356527
aF0.0
aF0.55022077021645
aF-0.2484081246752631
aF0.0
aF-0.005136632724948918
aF-0.19602861955798992
aF-0.02213812332546903
aF-0.0010539921508861067
aF-0.025551912543350784
aF0.0
aF-0.04594302621392119
aF0.0
aF-0.08125790131605089
aF0.0
aF-1.1819756637904926
aF0.4419541743942931
aF-0.445633767708255
aF-0.0311421960234436
aF-0.2987607287736538
aF-0.8372035627492703
aF-0.1562541075488204
aF-0.010586659944492227
aF-0.12253487446166797
aF-0.8484839427983838
aF-0.0018629430283761653
aF0.04649106071846612
aF-1.1566673908041356
aF-0.4636832781617055
aF-0.020831310630174925
aF0.739132585869787
aF-0.21797398243850186
aF0.0
aF0.077662894399149
aF-0.003627448499288142
aF0.6868764455284448
aF-0.04257609514938572
aF-0.17790079314563395
aF-0.02227898006932797
aF0.0
aF0.27333295334592184
aF-0.0009368087440425571
aF-0.10490800526385573
aF-0.5577048991473398
aF-0.2789402173073526
aF0.0
aF0.0
aF-0.03105965205894352
aF0.037723142956002535
aF0.0
aF0.0
aF-0.13244709176417022
aF0.0
aF-0.009595269777820402
aF-0.051475658631999946
aF0.09536923350981578
aF-0.03146872936467386
aF-0.8028270364407928
aF-0.04738916918432919
aF0.0
aF3.2887450078830724
aF-0.05400810059349881
aF0.0
aF-0.5054090390478905
aF0.0
aF0.0
aF0.0
aF-0.5788784572039027
aF0.0
aF-0.661316606336632
aF-0.14856432344217582
aF0.0
aF-0.24031647650135218
aF0.3661914492127383
aF-0.18846909307835177
aF-0.08562336018625095
aF-0.5159517898055721
aF-0.1536724126466728
aF-0.36957758527085394
aF-0.035755853755559015
aF0.5598014946376351
aF0.31454585513693645
aF-0.017424504412224477
aF-1.5939181777601505
aF0.4438318541398546
aF0.001922806030553155
aF0.03674137595547705
aF-0.13695852323545554
aF-0.39411212635416437
aF-1.062339423060051
aF-0.0457841445304496
aF0.10511495680775015
aF-0.10350288137663215
aF0.0
aF0.10458168451633729
aF-0.08359187317378758
aF-0.4577375242256851
aF0.1835427802912294
aF0.2495270509338527
aF0.22647324825135443
aF0.5904771398000731
aF-0.36840162166075835
aF0.19996049987306214
aF-0.06740616674530087
aF0.45092628726888834
aF0.1774355698124811
aF-0.009129048772388383
aF0.2111164404678886
aF-1.115085113429542
aF0.26682467708767715
aF0.5270905108910404
aF1.286965337131219
aF-0.5966099682818047
aF0.0
aF-1.0627730245843414
aF-1.0188198220689573
aF-0.23816611054167203
aF2.0058397944478448
aF0.021732215516788916
aF0.025640183222816342
aF-0.15479905620008444
aF-0.10600969774250038
aF-0.08441647111785966
aF-0.5966431021784664
aF-0.270546416214244
aF0.0
aF0.0
aF0.0
aF-0.24903957417484904
aF0.0
aF0.0
aF-1.783034638348411
aF-0.24234615339596788
aF0.0
aF0.0
aF0.815118963959135
aF0.0
aF0.0
aF0.4252704944202373
aF-0.3854036861938144
aF0.0
aF0.2960301020998176
aF-0.051535785271748645
aF0.6520879034419176
aF0.13100509678683242
aF0.0
aF0.0
aF0.0
aF-0.09899242710484132
aF0.0
aF0.18643841338238126
aF0.0
aF0.0
aF0.0
aF0.0
aF0.0
aF0.0
aF0.0
aF0.0
aF0.0
aF0.0
aF0.0
aF0.0
aF0.0
aF0.0
aF0.0
aF0.0
aF0.0
aF0.0
aF0.0
aF0.0
aF0.18643841338238126
aF0.0
aF0.0
aF0.0
aF0.0
aF0.0
aF-1.4594025086376805
aF0.168451888128729
aF-0.25699193200477144
aF-0.2034250871906981
aF-0.9791160636014348
aF0.30704283503327046
aF-0.03574402467918542
aF-0.17344026761402515
aF-0.158447338187122
aF-1.2525399071199068
aF-0.04387370430647264
aF0.019455075394136212
aF-0.40686712608073716
aF-0.320028324474719
aF-0.4201059648134897
aF-0.63993668061552
aF-0.15242805598834053
aF-0.002301524822553082
aF-0.02731294603302984
aF-0.03852022508591758
aF-0.8029645334858827
aF-0.498572014942695
aF-0.380005792394351
aF-0.1744445562625922
aF-0.013503686203262907
aF0.644047282947115
aF-0.022782109949617328
aF-1.2334982616875771
aF-0.3050659457158825
aF-0.020173988182261682
aF-0.24802208917688637
aF-0.011723689181442025
aF0.4788473359054404
aF0.008154650124587576
aF-0.007162063245732021
aF-1.4094832083108477
aF-0.250154481106043
aF0.0
aF-0.15550956802484164
aF-0.2398499689539069
aF-0.4886176102459098
aF0.00185950319638691
aF0.5165709936694628
aF0.10091064372803153
aF0.23183483484890166
aF-0.003175184150113345
aF-0.3098733061895485
aF-1.6011146038121433
aF0.144694613587466
aF-0.021332721478383342
aF0.020857270466295263
aF0.0
aF-0.48684685269715344
aF0.0
aF-0.4247549270444996
aF0.6845688704093078
aF-0.26083091458180435
aF-0.3431603056750787
aF0.0
aF-0.5875317482743373
aF0.7450029191633205
aF-0.06332143130424875
aF-1.2384481194937396
aF-0.46032135058977497
aF0.0
aF-0.000730759221733819
aF0.4578060331367219
aF-0.05471917761007166
aF-0.148985680662804
aF0.04603483535559083
aF0.0
aF0.0
aF-0.7436477636425696
aF0.08583024336327859
aF-1.6098236177480243
aF0.11130253855408132
aF-0.09192332110366963
aF0.2372041182183117
aF0.0
aF0.2695414460915988
aF-0.25708590067523324
aF0.3982743657639828
aF0.46526384021396977
aF-0.061830524323142545
aF0.27542558278211604
aF-0.3972962743272022
aF-0.10361763483518732
aF-0.12199908894427638
aF-0.10073899190813176
aF-0.03196729557632766
aF-0.10001505952942856
aF0.0
aF-0.04280271494024615
aF-0.13850946218810314
aF0.18999393913464632
aF-0.38358948021026723
aF0.0
aF-0.03830723821141738
aF0.0
aF0.21720728182495075
aF0.18682943337973212
aF0.7050393422192761
aF0.0
aF-0.0033151082150827487
aF0.0
aF0.05539245521581263
aF-0.011999625997723492
aF-0.046719766959476286
aF-0.9141814012009117
aF-0.1673887046736529
aF0.0
aF0.0
aF0.0
aF1.0902726693078075
aF0.0
aF0.0
aF0.0
aF-0.7835849945203275
aF0.0
aF-0.020109579028690937
aF-0.02115522349464352
aF0.0
aF0.0
aF-0.3261041966791273
aF0.0
aF0.0
aF-0.08273993474947064
aF-0.0012986785596900009
aF0.0
aF-0.01424801209249837
aF-0.1659546219492846
aF0.0
aF0.0
aF-0.40666650988208625
aF0.0
aF-0.22065991687625644
aF-0.4131538966833588
aF0.0
aF0.0
aF0.0
aF0.9162759674434149
aF-0.023280141721384356
aF0.0
aF0.480203248223385
aF-1.0234291862777731
aF0.0
aF0.0
aF-0.03163563859598217
aF0.0
aF-0.2662792451912087
aF0.48050169214623834
aF0.0
aF0.0
aF-0.23735292239470718
aF-0.1005779601295286
aF-0.08128862815654547
aF-0.03165517980775778
aF0.0
aF0.0
aF0.0
aF-0.25336153463736544
aF0.0
aF-0.26047786280532575
aF-0.016915948319781576
aF0.0
aF0.0262872973154551
aF0.0
aF-0.08312272765247616
aF-0.013635951876619474
aF0.0
aF0.0
aF-0.04473555948238077
aF0.0
aF0.0
aF0.0
aF0.0
aF0.0
aF-0.004534025812894763
aF0.0037167949614651486
aF0.0
aF0.0
aF0.0
aF0.27607056483481524
aF0.06978499190645515
aF0.0
aF-0.1166476385673132
aF0.0
aF-0.037528051334548944
aF0.0
aF0.49446752171164654
aF-0.20233748289940848
aF-0.06719512232332867
aF-0.03572063487490713
aF-0.09329872090046015
aF-0.07739429438604253
aF0.012377154223351994
aF0.0
aF0.0
aF0.05007687723327619
aF-0.0023900521210204035
aF-0.020911934106848624
aF1.0928681813060726
aF-0.14348984621007316
aF-0.8009526184248538
aF0.5955495705336572
aF-0.006541624741415139
aF0.0
aF-0.06925581681625917
aF-0.29481112902117357
aF-0.24164380104100625
aF-0.022564803596959768
aF-0.11118862854171686
aF-0.02792503039749351
aF0.0
aF0.0
aF0.0
aF-1.5978789416613526
aF-0.3711472947203628
aF-0.007655124264558277
aF0.0
aF0.0
aF-0.14542993011869573
aF0.0
aF-0.10480539343454111
aF0.0
aF-0.2802765166763673
aF0.0
aF-0.0020244558101606153
aF-0.013964730782953134
aF-0.008433359804272577
aF0.0
aF-0.08992777639257454
aF0.0
aF0.0
aF-0.009454823652747699
aF-0.08426578240746907
aF0.0
aF-0.0014912928045564635
aF0.0
aF0.0
aF0.0
aF-0.20366751940607689
aF-0.23915517551838508
aF1.9349973739116602
aF1.6624329558118174
aF1.9094931119084442
aF1.355856565959001
aF0.4940129464892088
aF1.0239898526371267
aF1.1039611302121861
aF1.2963353086081364
aF0.7507382306234671
aF0.18171540844988063
aF0.10038673196268195
aF1.0230651783715756
aF2.062496862940441
aF0.9296510198654038
aF0.6763173073845646
aF1.7445588638333729
aF0.15976743275831792
aF1.0775726101141374
aF2.360375350684198
aF1.6935328755134875
aF0.18987291124494576
aF0.6859430858592536
aF1.0287872687111868
aF0.0
aF0.22124939958160997
aF0.0
aF4.267188169235616
aF0.6013785038370608
aF-0.3749227210035183
aF0.09969166737311677
aF-0.648706563649305
aF0.7395486543731012
aF0.5112213388970893
aF-0.3059378631446346
aF2.2644758917916743
aF-1.422707253479402
aF-0.030736088603673016
aF-0.4026237013252605
aF0.009942936924171085
aF0.32071954590827206
aF0.9215363305112472
aF1.2533845467578775
aF-0.09679159503163742
aF0.25118268054505577
aF0.8717951990974809
aF-0.2189794683999466
aF0.8541422870675992
aF-0.17249159628286545
aF-0.31934393389433197
aF-0.2581013224641966
aF0.05037304080966407
aF0.06191129805340482
aF-0.29079852035294107
aF1.0610241532595723
aF0.24476950622149
aF-1.244243322965748
aF-0.05175546109384478
aF-0.2754938426287611
aF0.4722431182938408
aF-0.3423137550383149
aF-1.1133782950865752
aF-0.9354752894515777
aF-2.0494428889913183
aF0.1281772812882121
aF-0.0506718440493142
aF-1.3025090935704136
aF-0.5152275494835137
aF-0.5743678778330773
aF0.3432914629699599
aF0.5594030450517348
aF0.061254511771494255
aF-0.215610327546753
aF0.44732013882088756
aF0.23387317630273255
aF0.3190424324223786
aF-0.32964481467564216
aF-0.5643450194730519
aF-0.04734931415309094
aF0.015063754542377954
aF-0.3865395950929776
aF-0.6550326145413707
aF0.6360550883137225
aF-0.28213063695036
aF-0.23232527200829056
aF-0.15520213287157758
aF-0.09165960941677602
aF-1.016128059410274
aF-0.26424408383459924
aF-1.4173219761760636
aF-1.0989941652299522
aF-0.06104627183637204
aF-0.05971185073001281
aF-0.7031456363555646
aF-1.5197215715169368
aF-0.8746741998179323
aF0.5788710199099907
aF-0.4630602622369504
aF-0.009346983090001008
aF-0.0782866231706194
aF-1.2654483030938934
aF-0.858487531517643
aF-0.1573956069297835
aF-0.5690316303704591
aF-0.29159874039632727
aF-0.1730377382133265
aF-0.6817988371506577
aF-0.3393776875148767
aF-0.8149221105034932
aF0.12542498696313006
aF0.003677634879617123
aF-0.28536874514389887
aF-0.39251977390943077
aF0.19708738234416426
aF0.09192072579429904
aF0.08219738738961553
aF-1.3390925747378586
aF-1.280707281224752
aF-0.00408776035109451
aF0.4153175684328429
aF-1.2373199153952024
aF-0.5417091269307479
aF-1.3008779471687084
aF1.046569332655037
aF-0.3420512823972651
aF-0.06107113617433277
aF-0.8478365674405746
aF-0.49355408557622427
aF-0.9967944577721488
aF-0.13653207178860519
aF-0.15162895007005753
aF-0.5641728638313452
aF-0.014854097475266073
aF-0.9073796017990999
aF-0.22031146485196595
aF-0.9555372528500974
aF-0.6753315650671022
aF-0.10383903874589363
aF-0.3431316366558721
aF0.021273792431513873
aF-0.436850162530202
aF-0.09387399706164078
aF-0.09381431262822429
aF-0.6411031139303536
aF-0.35415286643950067
aF-0.014546750026930679
aF-0.13190770986079134
aF-0.5799213093007359
aF-0.2941673963849668
aF-0.6328401587630518
aF-0.3329776018126665
aF-0.19850790109640937
aF-0.04821766952011122
aF-0.835267191276366
aF-0.9661171872165576
aF-1.0238829777408756
aF0.5751425634264015
aF0.43130841198407827
aF0.2987131155363639
aF0.03465960896591216
aF0.08545109717467388
aF-0.013871697473568374
aF-1.1387185352484896
aF-0.2777144345528329
aF-0.01730417227598528
aF-0.305259159007014
aF-0.5103319865249832
aF-0.052518200706786304
aF-0.11935655057243967
aF0.2189093425133737
aF-0.7570001085713051
aF-0.28681966005460985
aF-0.018535907645503794
aF-0.20821191985718332
aF0.23003955369259838
aF-0.061044724791262155
aF-0.404729586467902
aF-0.7075956925397268
aF-0.2606849211564053
aF-0.019911495591833108
aF-0.7198697245305545
aF-0.5699607200076064
aF-0.7374548525819404
aF0.8171542400947365
aF-0.0182927839681039
aF-0.08096906647080744
aF-0.03154760463510734
aF-0.3523145726694134
aF-0.03273432640183515
aF-0.8598083204286076
aF0.02150096389137701
aF-0.029021457126648786
aF0.06609400761962907
aF-0.2860589744498366
aF-0.249809720311709
aF-0.12899186085758804
aF-0.4831654279082816
aF-0.4645910355060333
aF-0.23443006337967287
aF-0.01617182537402599
aF-0.29982648161313336
aF0.20450135083863913
aF-0.06362229880043638
aF-0.5626182644549867
aF-0.2904934542050157
aF-0.20945758907299508
aF0.0
aF-0.5298503464816794
aF0.9276412025934798
aF-0.7160053411461025
aF-0.2156353990787106
aF-0.1439409465238965
aF-0.04845212979273245
aF-0.0009538665560587861
aF0.4750299430877416
aF-0.012135638200532917
aF-0.49383772999596715
aF-0.19233152689279237
aF0.012253713206323496
aF0.057738755966486255
aF0.35731457314567133
aF-0.07405877155490687
aF-0.21950798820217093
aF0.039766517170044376
aF-0.6233399463758359
aF-0.766485037426113
aF0.0
aF0.08459236649779513
aF0.10780357188198157
aF-0.06205555861206624
aF-0.7081797098114453
aF-0.18749256934199457
aF-0.11368389818744247
aF0.0
aF-0.34456401885183513
aF0.08404677102772125
aF-0.4639626701697536
aF0.02538829369763952
aF0.001922806030553155
aF-0.05846773000873543
aF0.0
aF0.9751257454626465
aF0.0
aF-0.21985386605550875
aF-0.04144008973180915
aF0.05161857454374116
aF-0.12165491920715467
aF-0.18714325920423466
aF-0.6003542569745243
aF-0.22128733603653716
aF0.01641095532073109
aF-0.12211846758370339
aF-0.02000443402960116
aF0.0
aF0.09234436362411039
aF0.03797673135631839
aF-0.0012483496884931138
aF-0.4570578967377935
aF-0.20484471405119015
aF0.0227412973191249
aF0.0
aF-0.2807703735527865
aF-0.06720328241021195
aF-0.11712284403553462
aF-0.07699459857095803
aF0.0027795789554373057
aF0.0
aF0.0
aF0.2890932670135901
aF-0.21269724120360714
aF-0.6545448263444967
aF-0.22368488667719216
aF0.0
aF0.015772641840066468
aF0.005844345929019807
aF-0.20282734141763867
aF0.0
aF0.08561149237956579
aF-0.03201687985111245
aF0.0161015184645753
aF0.0
aF0.0
aF0.05605346598508634
aF0.0
aF-0.40472175752449396
aF-0.18592464515968404
aF0.0
aF0.0
aF0.11287476641111804
aF-0.042659193036032196
aF-0.18939976249287313
aF-0.01854092814122201
aF0.0
aF-0.018902929617244178
aF0.0
aF-0.025656900477018373
aF0.0
aF-0.6405331834081769
aF-0.003506871960320253
aF-0.21269724120360714
aF0.0
aF0.0016200256185224166
aF-0.1721275787859375
aF0.0
aF0.014043626298645116
aF0.0
aF0.05808826965132171
aF0.0
aF0.0
aF0.004540415282697822
aF0.0
aF0.01659794151871522
aF-0.19653902519103394
aF0.0
aF0.0
aF-0.1457007780385545
aF-0.08716525015488033
aF0.0
aF0.0
aF0.0
aF0.0017793478343654263
aF0.0
aF0.009774604552381603
aF0.0
aF-0.304310601733585
aF0.18787516924508
aF0.0018360361254925663
aF0.0
aF0.0
aF-0.233921742766542
aF0.0
aF0.0016194662465172174
aF0.0
aF0.0
aF0.0
aF0.0
aF0.001917933908193925
aF0.0
aF0.004427457203276549
aF0.00758062362693969
aF-0.21102107740908835
aF0.0
aF0.0
aF-0.11442210453520224
aF0.0031949248783998733
aF0.0
aF0.0
aF0.0
aF0.0
aF-0.0292373008956756
aF0.0
aF-0.06770325079019895
aF0.0
aF0.0
aF0.0
aF0.0
aF0.0
aF0.0
aF0.0
aF-0.21102107740908835
aF0.0
aF0.0
aF0.0
aF0.0018360361254925663
aF0.0
aF0.16165956518653993
aF0.0
aF0.0
aF0.0
aF0.0017793478343654263
aF0.012733701363635434
aF-0.21269724120360714
aF0.0
aF0.0
aF0.0
aF0.0
aF0.001917933908193925
aF0.0
aF0.001917933908193925
aF0.0
aF0.0
aF0.0
aF0.0017793478343654263
aF-0.20918504128360044
aF0.0
aF0.0
aF-0.21269724120360714
aF0.0
aF0.0
aF0.0
aF0.0
aF0.0
aF0.0
aF0.0
aF0.0
aF0.0
aF0.0
aF0.002477952396428431
aF0.0
aF0.0
aF0.0
aF0.0
aF0.0
aF0.0
aF0.0
aF-0.20918504128360044
aF0.48122160123179686
aF-0.34730071548752134
aF-0.08215536315040883
aF0.6816062058595664
aF0.8567092454377963
aF-0.11555638406143598
aF0.4311276418712184
aF-0.03892501229600828
aF-1.9404613265502064
aF-0.04300533353866981
aF0.686465916851709
aF-0.3369631414650236
aF-0.457716300422904
aF0.32204061892928465
aF0.1862687897125971
aF-0.3361550054328453
aF0.0
aF2.170028229362346
aF1.2056111516292778
aF0.5844415232502663
aF0.23472238237592463
aF-0.24724513125671016
aF-0.006093284536960584
aF-0.31921760877750055
aF0.9295092361116402
aF-0.2760292387237063
aF0.7479699283195087
aF0.011321480130496265
aF-0.9092300656007879
aF-0.4207185693595217
aF-0.9322048140853082
aF0.4824260805627437
aF-0.7387042075064726
aF-0.1379025683074901
aF0.1977745958289348
aF-1.4888135840914742
aF-0.033833646878169026
aF-0.6758598548915188
aF0.12250091140426396
aF0.40831387822677473
aF-0.004443298155983825
aF1.2085426639431243
aF-0.42429467859261955
aF0.0
aF-0.17342611309552583
aF-0.46094844333311125
aF-1.5051259118017684
aF0.07680189935096386
aF-0.6756670367638016
aF-0.2799533861276718
aF-0.08034169287624017
aF-0.6495690392264063
aF-0.3083488533204101
aF-0.3592904993306174
aF0.4715523318937427
aF-0.4558904228615834
aF-0.4267955553703706
aF-1.03598604339287
aF-0.0192951732933916
aF-0.52709479351303
aF-1.1048067426439105
aF-1.017520209164034
aF-0.5980645344493285
aF-0.07387638518512336
aF-0.26839996919723713
aF-0.34450262829718875
aF0.0007853827395309125
aF-1.1856918397382377
aF-0.11210064150421044
aF-0.6557891691900961
aF-0.13736325004178832
aF-0.6092487268858574
aF-1.4079937910162903
aF-0.8390391374230373
aF0.5135190566504539
aF-0.3078919398138307
aF-0.16801006848970954
aF-0.06391357259059159
aF-0.46801882595471567
aF-0.35211914937070843
aF-0.2124077866575887
aF-0.12072738108671259
aF-0.49390911092832745
aF-0.5495158416947581
aF-1.276184792570207
aF-0.25970716093719864
aF-0.7036080554969885
aF-1.036523987962756
aF-0.7343981987935295
aF-0.920121335725532
aF-0.00799593473127232
aF-0.1387690399893017
aF-0.6813006760758706
aF-1.4434724294065209
aF-0.5128404096488552
aF-0.206218292743155
aF-0.37135173105520713
aF0.0017613501441089083
aF-0.558691656463709
aF0.03424804515820346
aF-0.07502198559130512
aF0.2493890554616372
aF0.23444453506800225
aF-0.5787552695136268
aF-0.017733946589099315
aF0.9728075156544326
aF-0.055480681778461015
aF-0.28457759937651
aa.